(dp0
I1
(dp1
S'north'
p2
(dp3
S'3373b3f5685'
p4
((lp5
(I8
I5
tp6
a(I9
I4
tp7
a(I1
I17
I0
I0
tp8
tp9
sS'7384b3f535667'
p10
((lp11
(I6
I7
tp12
a(I7
I6
tp13
a(I1
I21
I0
I0
tp14
tp15
sS'8384b3f455356'
p16
((lp17
(I4
I5
tp18
ag12
a(I1
I25
I0
I0
tp19
tp20
sS'2373b3f5694'
p21
((lp22
g7
a(I10
I5
tp23
a(I1
I17
I0
I0
tp24
tp25
sS'4473b3f5676'
p26
((lp27
g13
ag6
a(I1
I17
I0
I0
tp28
tp29
sS'7483849394f43455356'
p30
((lp31
(I4
I3
tp32
a(I6
I3
tp33
a(I8
I5
tp34
a(I10
I3
tp35
a(I1
I38
I0
I0
tp36
tp37
sS'0373b3f56b5'
p38
((lp39
(ta(I0
I1
I0
I0
tp40
tp41
sS'838492939495f424344455354'
p42
((lp43
(I4
I2
tp44
a(I6
I4
tp45
a(I1
I59
I0
I0
tp46
tp47
sS'0473b3f56b5'
p48
((lp49
(ta(I0
I1
I0
I0
tp50
tp51
sS'338384929394f43455354'
p52
((lp53
(I5
I4
tp54
a(I3
I2
tp55
a(I3
I4
tp56
a(I5
I6
tp57
a(I1
I38
I0
I0
tp58
tp59
sS'1373b3f56a5'
p60
((lp61
g23
a(I11
I5
tp62
a(I1
I17
I0
I0
tp63
tp64
ssS'south'
p65
(dp66
S'4473b3f5685'
p67
((lp68
(I4
I4
tp69
a(I3
I3
tp70
a(I1
I25
I0
I0
tp71
tp72
sS'3373b3f5694'
p73
((lp74
g70
a(I2
I3
tp75
a(I1
I25
I0
I0
tp76
tp77
sS'838492939495f424344455463'
p78
((lp79
(I9
I5
tp80
a(I7
I3
tp81
a(I5
I3
tp82
a(I3
I3
tp83
a(I5
I5
tp84
a(I3
I5
tp85
a(I1
I79
I0
I0
tp86
tp87
sS'7384b3f535676'
p88
((lp89
(I8
I4
tp90
a(I6
I2
tp91
ag69
a(I1
I26
I0
I0
tp92
tp93
sS'8384929394f43455356'
p94
((lp95
(I9
I2
tp96
a(I7
I4
tp97
a(I1
I50
I0
I0
tp98
tp99
sS'1373b3f56b5'
p100
((lp101
(I1
I3
tp102
a(I0
I3
tp103
a(I1
I18
I0
I0
tp104
tp105
sS'838493f455356a3'
p106
((lp107
(I9
I3
tp108
a(I11
I3
tp109
a(I1
I28
I0
I0
tp110
tp111
sS'358384929394f4264'
p112
((lp113
(I9
I3
tp114
a(I7
I5
tp115
a(I5
I3
tp116
a(I3
I1
tp117
a(I1
I41
I0
I0
tp118
tp119
sS'8384b3f535667'
p120
((lp121
(I8
I3
tp122
a(I7
I3
tp123
a(I1
I25
I0
I0
tp124
tp125
sS'838492939495f434445535464'
p126
((lp127
(I9
I5
tp128
a(I7
I3
tp129
a(I5
I5
tp130
a(I3
I3
tp131
a(I1
I65
I0
I0
tp132
tp133
sS'0373b3f56b5'
p134
((lp135
g103
a(I0
I4
tp136
a(I1
I18
I0
I0
tp137
tp138
sS'2373b3f56a5'
p139
((lp140
g75
ag102
a(I1
I25
I0
I0
tp141
tp142
sS'838492939495f424344455354'
p143
((lp144
(I9
I2
tp145
a(I7
I4
tp146
a(I1
I59
I0
I0
tp147
tp148
sS'0473b3f56b5'
p149
((lp150
g136
a(I0
I3
tp151
a(I1
I18
I0
I0
tp152
tp153
sssI2
(dp154
g2
(dp155
S'678392939495f525354556364'
p156
((lp157
(I6
I3
tp158
a(I4
I3
tp159
a(I2
I1122
I0
I56
tp160
tp161
sS'148392939495f525354667787'
p162
((lp163
(I5
I2
tp164
a(I4
I1
tp165
a(I2
I1920
I0
I45
tp166
tp167
sS'478392939495f525354556364'
p168
((lp169
(I6
I4
tp170
a(I4
I4
tp171
a(I6
I6
tp172
a(I2
I816
I0
I55
tp173
tp174
sS'778392939495f435253545564'
p175
((lp176
(I4
I3
tp177
ag158
a(I2
I905
I0
I50
tp178
tp179
sS'828384939495f434445525354'
p180
((lp181
(I4
I5
tp182
a(I6
I3
tp183
a(I2
I499
I0
I53
tp184
tp185
sS'838692939495f435253545563'
p186
((lp187
(I6
I3
tp188
ag170
a(I2
I1117
I0
I38
tp189
tp190
sS'258392939495f525354636677'
p191
((lp192
(I6
I3
tp193
a(I4
I3
tp194
a(I6
I5
tp195
a(I6
I7
tp196
a(I8
I7
tp197
a(I2
I328
I0
I42
tp198
tp199
sS'838492939495f424344455354'
p200
((lp201
(I4
I2
tp202
ag164
a(I2
I697
I0
I52
tp203
tp204
sS'838492939495f434452535463'
p205
((lp206
(I4
I4
tp207
a(I5
I5
tp208
a(I2
I751
I0
I46
tp209
tp210
sS'368392939495f525354556366'
p211
((lp212
g208
a(I7
I7
tp213
a(I2
I357
I0
I51
tp214
tp215
sS'838492939495f434445525354'
p216
((lp217
(I4
I5
tp218
a(I6
I3
tp219
a(I2
I565
I0
I53
tp220
tp221
sS'578392939495f435253545564'
p222
((lp223
g159
ag193
a(I2
I701
I0
I51
tp224
tp225
ssg65
(dp226
S'46525583fc3'
p227
((lp228
(I8
I3
tp229
a(I7
I2
tp230
a(I2
I225
I0
I32
tp231
tp232
sS'828384939495f424345525354'
p233
((lp234
(I9
I5
tp235
a(I7
I3
tp236
a(I2
I989
I0
I52
tp237
tp238
sS'838492939495f424445525354'
p239
((lp240
(I9
I2
tp241
a(I8
I2
tp242
a(I2
I1042
I0
I53
tp243
tp244
sS'838492939495f424445535465'
p245
((lp246
(I9
I3
tp247
a(I7
I5
tp248
a(I5
I5
tp249
a(I3
I3
tp250
a(I5
I1
tp251
a(I2
I1145
I0
I60
tp252
tp253
sS'358384929394f4244'
p254
((lp255
(I3
I5
tp256
a(I5
I3
tp257
a(I3
I1
tp258
a(I1
I57
I0
I0
tp259
tp260
sS'1525647483fa0'
p261
((lp262
(I1
I5
tp263
a(I0
I4
tp264
a(I1
I34
I0
I0
tp265
tp266
sS'678392939495f435253545564'
p267
((lp268
(I6
I7
tp269
a(I5
I7
tp270
a(I2
I938
I0
I39
tp271
tp272
sS'748283848593f424445525354'
p273
((lp274
(I8
I3
tp275
a(I6
I5
tp276
a(I4
I3
tp277
a(I4
I1
tp278
a(I2
I435
I0
I59
tp279
tp280
sS'7482838493f4043455354'
p281
((lp282
(I8
I4
tp283
a(I6
I4
tp284
a(I4
I2
tp285
a(I4
I4
tp286
a(I4
I6
tp287
a(I2
I498
I0
I45
tp288
tp289
sS'52556483fb2'
p290
((lp291
(I6
I4
tp292
a(I4
I6
tp293
a(I2
I181
I0
I29
tp294
tp295
sS'358384929394f4264'
p296
((lp297
(I9
I3
tp298
a(I7
I5
tp299
a(I5
I3
tp300
a(I3
I1
tp301
a(I1
I41
I0
I0
tp302
tp303
sS'358283849394f4452'
p304
((lp305
(I3
I5
tp306
a(I5
I3
tp307
a(I5
I1
tp308
a(I1
I57
I0
I0
tp309
tp310
sS'73748284f304345'
p311
((lp312
(I8
I2
tp313
a(I6
I4
tp314
a(I2
I164
I0
I32
tp315
tp316
sS'828384939495f434445525354'
p317
((lp318
(I9
I5
tp319
a(I7
I3
tp320
a(I2
I954
I0
I52
tp321
tp322
sS'838492939495f424344455254'
p323
((lp324
(I9
I2
tp325
a(I8
I2
tp326
a(I2
I857
I0
I53
tp327
tp328
sS'338384929394f42444565'
p329
((lp330
(I9
I3
tp331
a(I7
I5
tp332
a(I5
I5
tp333
a(I3
I5
tp334
a(I5
I3
tp335
a(I3
I1
tp336
a(I1
I46
I0
I0
tp337
tp338
sS'738283848594f424344455355'
p339
((lp340
(I9
I4
tp341
a(I7
I2
tp342
a(I7
I4
tp343
a(I2
I1137
I0
I53
tp344
tp345
sS'2564748393f4470'
p346
((lp347
(I9
I3
tp348
a(I7
I3
tp349
a(I7
I5
tp350
a(I5
I3
tp351
a(I3
I5
tp352
a(I1
I5
tp353
a(I2
I193
I0
I43
tp354
tp355
sS'748283848593f434445525354'
p356
((lp357
(I8
I5
tp358
a(I6
I3
tp359
a(I4
I1
tp360
a(I2
I1334
I0
I54
tp361
tp362
sS'578392939495f525354556364'
p363
((lp364
g270
a(I4
I7
tp365
a(I2
I1027
I0
I38
tp366
tp367
sS'505183849295f4553'
p368
((lp369
(I5
I0
tp370
a(I5
I2
tp371
a(I5
I4
tp372
a(I3
I6
tp373
a(I1
I51
I0
I0
tp374
tp375
sS'828384939495f424344455354'
p376
((lp377
(I9
I5
tp378
a(I7
I3
tp379
a(I2
I1001
I0
I52
tp380
tp381
sS'64839394f42436392'
p382
((lp383
(I9
I4
tp384
a(I7
I2
tp385
a(I5
I4
tp386
a(I3
I2
tp387
a(I5
I2
tp388
a(I2
I183
I0
I39
tp389
tp390
sS'838492939495f424344455463'
p391
((lp392
(I9
I5
tp393
a(I7
I3
tp394
a(I5
I3
tp395
a(I3
I3
tp396
a(I5
I5
tp397
ag256
a(I2
I997
I0
I70
tp398
tp399
sS'738283848593f424344455354'
p400
((lp401
(I9
I3
tp402
ag341
a(I2
I1096
I0
I39
tp403
tp404
sS'518384929495f455462'
p405
((lp406
(I9
I4
tp407
a(I7
I2
tp408
a(I5
I2
tp409
ag370
a(I2
I677
I0
I60
tp410
tp411
sS'738283848594f334244525354'
p412
((lp413
(I8
I3
tp414
a(I6
I3
tp415
a(I4
I1
tp416
a(I4
I3
tp417
a(I2
I3
tp418
a(I2
I323
I0
I57
tp419
tp420
sS'64737484f303445'
p421
((lp422
(I7
I3
tp423
a(I5
I5
tp424
a(I3
I5
tp425
a(I3
I3
tp426
a(I2
I133
I0
I32
tp427
tp428
sS'478392939495f525354556366'
p429
((lp430
g365
a(I3
I6
tp431
a(I2
I675
I0
I42
tp432
tp433
sS'828384939495f444552535463'
p434
((lp435
(I8
I2
tp436
a(I9
I2
tp437
a(I2
I1617
I0
I52
tp438
tp439
sS'13335484f71'
p440
((lp441
(I1
I3
tp442
a(I0
I3
tp443
a(I1
I26
I0
I0
tp444
tp445
sS'33647484f41'
p446
((lp447
g343
a(I5
I4
tp448
a(I2
I109
I0
I28
tp449
tp450
sS'738283848594f434445525354'
p451
((lp452
g341
a(I7
I2
tp453
a(I7
I4
tp454
a(I2
I1391
I0
I56
tp455
tp456
sS'738283849394f344244535456'
p457
((lp458
(I8
I3
tp459
a(I6
I3
tp460
a(I4
I3
tp461
a(I4
I5
tp462
a(I2
I3
tp463
a(I2
I280
I0
I56
tp464
tp465
sS'2574828393f4460'
p466
((lp467
g436
a(I8
I4
tp468
a(I6
I4
tp469
a(I2
I223
I0
I41
tp470
tp471
sS'7482848593f30444553'
p472
((lp473
(I8
I5
tp474
a(I6
I3
tp475
a(I4
I3
tp476
a(I2
I318
I0
I48
tp477
tp478
sS'828384939495f434445525463'
p479
((lp480
(I9
I5
tp481
a(I7
I3
tp482
a(I5
I3
tp483
a(I3
I3
tp484
a(I5
I5
tp485
ag306
a(I2
I871
I0
I58
tp486
tp487
sS'738283849394f424352535463'
p488
((lp489
(I8
I4
tp490
a(I6
I2
tp491
a(I4
I4
tp492
ag292
a(I2
I1297
I0
I48
tp493
tp494
sS'538384929394f4243444555'
p495
((lp496
g395
a(I3
I3
tp497
a(I5
I1
tp498
a(I2
I934
I0
I51
tp499
tp500
sS'838492939495f444552536372'
p501
((lp502
(I8
I4
tp503
a(I8
I2
tp504
a(I6
I2
tp505
a(I4
I2
tp506
a(I6
I4
tp507
a(I2
I976
I0
I62
tp508
tp509
sS'8392939495f444565'
p510
((lp511
g437
a(I7
I4
tp512
a(I5
I6
tp513
a(I3
I4
tp514
a(I5
I4
tp515
a(I1
I40
I0
I0
tp516
tp517
sS'738283849394f424345525354'
p518
((lp519
(I9
I4
tp520
a(I8
I5
tp521
a(I2
I1506
I0
I52
tp522
tp523
sS'248384929394f4264'
p524
((lp525
(I9
I3
tp526
a(I7
I5
tp527
a(I5
I3
tp528
a(I3
I1
tp529
a(I1
I41
I0
I0
tp530
tp531
sS'52648393fa1'
p532
((lp533
(I9
I3
tp534
a(I7
I3
tp535
a(I5
I5
tp536
a(I2
I105
I0
I30
tp537
tp538
sS'737482838485f424344455354'
p539
((lp540
g379
a(I7
I5
tp541
ag348
a(I2
I1498
I0
I52
tp542
tp543
sS'234051576694f43'
p544
((lp545
g463
a(I1
I3
tp546
a(I2
I160
I0
I37
tp547
tp548
sS'248384929394f4245'
p549
((lp550
(I9
I2
tp551
a(I7
I4
tp552
a(I2
I242
I0
I54
tp553
tp554
sS'738283849394f424344455355'
p555
((lp556
(I9
I4
tp557
ag474
a(I2
I1367
I0
I49
tp558
tp559
sS'2535647483f90'
p560
((lp561
(I3
I5
tp562
ag263
a(I2
I152
I0
I35
tp563
tp564
sS'828384939495f424344455253'
p565
((lp566
(I9
I5
tp567
a(I7
I3
tp568
a(I2
I1169
I0
I52
tp569
tp570
sS'828384939495f434452535463'
p571
((lp572
g436
a(I9
I2
tp573
a(I2
I1315
I0
I52
tp574
tp575
sS'235762667394f45'
p576
((lp577
(I7
I3
tp578
a(I5
I1
tp579
a(I2
I240
I0
I43
tp580
tp581
sS'22335484f61'
p582
((lp583
(I2
I2
tp584
ag442
a(I2
I154
I0
I26
tp585
tp586
sS'247483849394f4244'
p587
((lp588
(I2
I4
tp589
a(I1
I3
tp590
a(I2
I277
I0
I51
tp591
tp592
sS'2564747583f4480'
p593
((lp594
g350
a(I5
I3
tp595
ag562
a(I1
I5
tp596
a(I2
I182
I0
I42
tp597
tp598
sS'828384939495f344244535455'
p599
((lp600
(I9
I5
tp601
ag578
a(I2
I850
I0
I54
tp602
tp603
sS'778392939495f525354556364'
p604
((lp605
(I7
I7
tp606
ag269
a(I2
I1166
I0
I37
tp607
tp608
sS'258392939495f525354667787'
p609
((lp610
(I2
I5
tp611
a(I1
I4
tp612
a(I2
I466
I0
I44
tp613
tp614
sS'838492939495f434445525354'
p615
((lp616
(I9
I2
tp617
ag436
a(I2
I1071
I0
I53
tp618
tp619
sS'3674828393f4450'
p620
((lp621
(I3
I6
tp622
a(I2
I5
tp623
a(I2
I205
I0
I39
tp624
tp625
sS'137483849394f4245'
p626
((lp627
g590
a(I0
I3
tp628
a(I1
I51
I0
I0
tp629
tp630
sS'148392939495f415354667787'
p631
((lp632
g612
a(I0
I3
tp633
a(I1
I42
I0
I0
tp634
tp635
sS'74828493f304245'
p636
((lp637
g348
a(I7
I5
tp638
ag423
a(I2
I206
I0
I31
tp639
tp640
sS'358384929394f4255'
p641
((lp642
g256
ag589
a(I2
I321
I0
I53
tp643
tp644
sS'368392939495f525354636677'
p645
((lp646
g431
ag611
a(I2
I782
I0
I42
tp647
tp648
sS'237382849394f425455'
p649
((lp650
(I8
I2
tp651
a(I6
I4
tp652
a(I4
I4
tp653
a(I6
I6
tp654
a(I2
I368
I0
I51
tp655
tp656
sS'838492939495f435253545563'
p657
((lp658
(I8
I4
tp659
a(I8
I2
tp660
a(I10
I4
tp661
a(I8
I6
tp662
a(I2
I1472
I0
I52
tp663
tp664
sS'738283848593f424344525354'
p665
((lp666
(I9
I3
tp667
a(I9
I4
tp668
a(I2
I1214
I0
I41
tp669
tp670
sS'235157626694f44'
p671
((lp672
(I6
I2
tp673
a(I4
I0
tp674
a(I2
I178
I0
I40
tp675
tp676
sS'237382848594f345354'
p677
((lp678
g418
a(I4
I5
tp679
a(I6
I3
tp680
a(I4
I3
tp681
a(I1
I73
I0
I0
tp682
tp683
sS'134051576694f44'
p684
((lp685
g546
a(I0
I3
tp686
a(I1
I34
I0
I0
tp687
tp688
sS'4674828393f4044'
p689
((lp690
g287
ag622
a(I2
I287
I0
I40
tp691
tp692
sS'748283848593f424344455355'
p693
((lp694
g348
a(I7
I3
tp695
a(I2
I1164
I0
I51
tp696
tp697
sS'738283849394f434445525463'
p698
((lp699
g320
a(I5
I3
tp700
a(I3
I3
tp701
a(I5
I5
tp702
a(I3
I5
tp703
a(I2
I1500
I0
I47
tp704
tp705
sS'838492939495f424344455355'
p706
((lp707
g551
a(I8
I2
tp708
a(I2
I848
I0
I53
tp709
tp710
sS'838692939495f435253545564'
p711
((lp712
g662
ag606
a(I2
I804
I0
I52
tp713
tp714
sS'33546484f51'
p715
((lp716
g314
a(I4
I4
tp717
ag584
a(I2
I114
I0
I30
tp718
tp719
sS'838492939495f344244455354'
p720
((lp721
(I9
I2
tp722
ag651
a(I2
I1041
I0
I53
tp723
tp724
sS'235766738494f44'
p725
((lp726
(I8
I4
tp727
ag673
a(I2
I201
I0
I47
tp728
tp729
sS'236673849394f43'
p730
((lp731
g247
a(I7
I5
tp732
a(I5
I7
tp733
a(I2
I153
I0
I48
tp734
tp735
sS'738283849394f434445525354'
p736
((lp737
(I9
I4
tp738
ag358
a(I2
I1359
I0
I50
tp739
tp740
sssI3
(dp741
g2
(dp742
S'8284a5f7077'
p743
((lp744
(I7
I7
tp745
a(I8
I6
tp746
a(I3
I782
I82
I7
tp747
tp748
sS'738384929394f434445525354'
p749
((lp750
(I4
I4
tp751
a(I4
I2
tp752
a(I6
I4
tp753
a(I8
I2
tp754
a(I10
I2
tp755
a(I3
I40219
I988
I58
tp756
tp757
sS'828384929394f445253546365'
p758
((lp759
(I6
I5
tp760
a(I6
I6
tp761
a(I3
I42216
I827
I56
tp762
tp763
sS'728283848693f435253545563'
p764
((lp765
(I5
I2
tp766
a(I7
I4
tp767
a(I9
I2
tp768
a(I3
I20465
I531
I45
tp769
tp770
sS'8294a4f7096'
p771
((lp772
(I9
I6
tp773
a(I10
I6
tp774
a(I3
I1236
I123
I9
tp775
tp776
sS'828384939495f434445525354'
p777
((lp778
g182
a(I6
I3
tp779
a(I3
I18061
I447
I53
tp780
tp781
sS'82b4f70c5'
p782
((lp783
(I12
I5
tp784
a(I13
I4
tp785
a(I1
I11
I0
I0
tp786
tp787
sS'7282838693f435354556392'
p788
((lp789
(I5
I3
tp790
a(I7
I3
tp791
a(I9
I1
tp792
a(I3
I37034
I1133
I44
tp793
tp794
sS'33728386f54559192'
p795
((lp796
(I9
I1
tp797
a(I9
I3
tp798
a(I7
I3
tp799
a(I7
I1
tp800
a(I3
I13092
I584
I28
tp801
tp802
sS'828384929394f525354636466'
p803
((lp804
g761
ag745
a(I3
I49588
I1083
I59
tp805
tp806
sS'7384a5f6177'
p807
((lp808
(I6
I1
tp809
a(I7
I0
tp810
a(I3
I1569
I208
I6
tp811
tp812
sS'82a4b4f70a6'
p813
((lp814
g774
a(I11
I6
tp815
a(I3
I1177
I106
I8
tp816
tp817
sS'738384f527795'
p818
((lp819
(I5
I2
tp820
ag809
a(I3
I2473
I196
I16
tp821
tp822
sS'8283929394a4f445253546366'
p823
((lp824
(I4
I4
tp825
a(I6
I2
tp826
a(I6
I4
tp827
a(I3
I77549
I1895
I52
tp828
tp829
sS'568493a2f52535463'
p830
((lp831
(I5
I2
tp832
a(I7
I4
tp833
a(I9
I4
tp834
a(I9
I2
tp835
a(I11
I2
tp836
a(I3
I5302
I118
I35
tp837
tp838
sS'828384869394f434452535463'
p839
((lp840
(I4
I4
tp841
a(I5
I5
tp842
a(I3
I42136
I1004
I55
tp843
tp844
sS'2286f54557192'
p845
((lp846
g800
a(I8
I1
tp847
a(I3
I3169
I110
I25
tp848
tp849
sS'1286f54558192'
p850
((lp851
(I5
I5
tp852
a(I4
I4
tp853
a(I2
I5111
I211
I32
tp854
tp855
sS'46f535463b2'
p856
((lp857
(I5
I3
tp858
a(I5
I5
tp859
a(I3
I7
tp860
a(I1
I16
I0
I0
tp861
tp862
sS'828492939495f434445525354'
p863
((lp864
(I4
I5
tp865
a(I6
I3
tp866
a(I3
I18909
I370
I53
tp867
tp868
sS'828494f7086'
p869
((lp870
g746
ag773
a(I3
I1303
I138
I9
tp871
tp872
sS'849394a1f4345525354'
p873
((lp874
(I4
I5
tp875
a(I6
I3
tp876
a(I3
I6765
I169
I39
tp877
tp878
sS'849394a2f4352535463'
p879
((lp880
(I4
I3
tp881
a(I6
I5
tp882
a(I3
I16151
I389
I31
tp883
tp884
sS'82a4b5f70b6'
p885
((lp886
g815
ag784
a(I3
I1191
I110
I7
tp887
tp888
sS'828392939495f434452535463'
p889
((lp890
(I4
I3
tp891
ag760
a(I3
I59439
I1472
I48
tp892
tp893
sS'838492939495f424344455354'
p894
((lp895
(I4
I2
tp896
ag832
a(I3
I24013
I539
I52
tp897
tp898
sS'558283849294f5253546377'
p899
((lp900
(I5
I3
tp901
a(I7
I3
tp902
a(I9
I1
tp903
a(I9
I3
tp904
a(I9
I5
tp905
a(I3
I16984
I452
I37
tp906
tp907
ssg65
(dp908
S'828384939495f434452535455'
p909
((lp910
(I9
I5
tp911
a(I7
I3
tp912
a(I3
I26804
I869
I51
tp913
tp914
sS'5375828694f67'
p915
((lp916
(I9
I4
tp917
a(I8
I5
tp918
a(I3
I2548
I26
I39
tp919
tp920
sS'828384939495f424445525354'
p921
((lp922
(I9
I5
tp923
a(I7
I3
tp924
a(I3
I25172
I784
I51
tp925
tp926
sS'7382849394f365355'
p927
((lp928
(I8
I2
tp929
a(I6
I4
tp930
a(I4
I6
tp931
a(I2
I6
tp932
a(I3
I14143
I250
I44
tp933
tp934
sS'157382839394f142433'
p935
((lp936
(I1
I5
tp937
a(I0
I4
tp938
a(I1
I50
I0
I0
tp939
tp940
sS'828384869293f525354626364'
p941
((lp942
(I8
I4
tp943
ag917
a(I3
I43988
I912
I61
tp944
tp945
sS'5275828694f56'
p946
((lp947
(I5
I2
tp948
a(I5
I3
tp949
a(I3
I3148
I34
I38
tp950
tp951
sS'828384869394f435253545563'
p952
((lp953
(I9
I4
tp954
a(I7
I2
tp955
a(I3
I29043
I573
I59
tp956
tp957
sS'738283849394f424452535455'
p958
((lp959
(I8
I3
tp960
a(I6
I3
tp961
a(I4
I1
tp962
a(I4
I3
tp963
a(I4
I5
tp964
a(I3
I7192
I148
I53
tp965
tp966
sS'738283849394f333436424553'
p967
((lp968
(I8
I4
tp969
a(I6
I2
tp970
a(I4
I4
tp971
a(I4
I6
tp972
a(I2
I6
tp973
a(I3
I13486
I286
I56
tp974
tp975
sS'3541546482fb6'
p976
((lp977
(I6
I4
tp978
a(I4
I4
tp979
a(I2
I6
tp980
a(I3
I5173
I54
I35
tp981
tp982
sS'3142638494fb5'
p983
((lp984
(I3
I1
tp985
a(I2
I2
tp986
a(I3
I5471
I117
I39
tp987
tp988
sS'727382838493f434451525354'
p989
((lp990
(I9
I3
tp991
a(I7
I5
tp992
a(I3
I49582
I1179
I66
tp993
tp994
sS'267382839394f243334'
p995
((lp996
g973
ag937
a(I3
I25605
I806
I45
tp997
tp998
sS'738283849394f435253545566'
p999
((lp1000
(I8
I4
tp1001
a(I6
I2
tp1002
a(I4
I2
tp1003
a(I4
I4
tp1004
a(I6
I4
tp1005
a(I4
I6
tp1006
a(I3
I22095
I561
I60
tp1007
tp1008
sS'838492939495f334244455354'
p1009
((lp1010
(I9
I2
tp1011
a(I8
I2
tp1012
a(I3
I30563
I1181
I54
tp1013
tp1014
sS'32828386f535463a1'
p1015
((lp1016
(I8
I2
tp1017
a(I7
I1
tp1018
a(I3
I6888
I390
I29
tp1019
tp1020
sS'838492939495f424445525354'
p1021
((lp1022
(I9
I2
tp1023
ag929
a(I3
I38405
I1448
I53
tp1024
tp1025
sS'8283849394f455254636477'
p1026
((lp1027
(I9
I3
tp1028
a(I7
I3
tp1029
a(I5
I3
tp1030
a(I5
I5
tp1031
a(I3
I5
tp1032
a(I3
I42103
I934
I61
tp1033
tp1034
sS'3574828384f60'
p1035
((lp1036
(I8
I2
tp1037
a(I7
I1
tp1038
a(I3
I1630
I26
I11
tp1039
tp1040
sS'4042637273fb5'
p1041
((lp1042
(I7
I2
tp1043
a(I7
I4
tp1044
a(I5
I2
tp1045
a(I3
I2
tp1046
a(I3
I4266
I49
I36
tp1047
tp1048
sS'738283849394f424445525463'
p1049
((lp1050
g924
a(I5
I3
tp1051
a(I3
I37575
I748
I55
tp1052
tp1053
sS'8384929394f26435354'
p1054
((lp1055
(I9
I3
tp1056
a(I7
I3
tp1057
a(I3
I8810
I162
I47
tp1058
tp1059
sS'838492939495f424344455463'
p1060
((lp1061
(I9
I5
tp1062
a(I7
I3
tp1063
a(I5
I3
tp1064
a(I3
I3
tp1065
a(I5
I5
tp1066
a(I3
I5
tp1067
a(I3
I61731
I1279
I68
tp1068
tp1069
sS'828384939495f444552535463'
p1070
((lp1071
(I9
I5
tp1072
a(I8
I6
tp1073
a(I3
I34758
I870
I54
tp1074
tp1075
sS'7483849395f425467'
p1076
((lp1077
(I8
I3
tp1078
a(I6
I5
tp1079
a(I4
I3
tp1080
a(I4
I1
tp1081
a(I3
I10912
I131
I52
tp1082
tp1083
sS'357483849394f4254'
p1084
((lp1085
(I8
I3
tp1086
a(I6
I5
tp1087
a(I4
I3
tp1088
a(I4
I1
tp1089
a(I1
I18
I0
I0
tp1090
tp1091
sS'72838693f435455639192'
p1092
((lp1093
(I9
I3
tp1094
a(I7
I3
tp1095
a(I5
I3
tp1096
a(I3
I3
tp1097
a(I3
I21179
I798
I31
tp1098
tp1099
sS'467382839394f5377'
p1100
((lp1101
(I8
I3
tp1102
a(I6
I3
tp1103
a(I3
I12152
I90
I56
tp1104
tp1105
sS'354446638394fb6'
p1106
((lp1107
g1006
a(I2
I4
tp1108
a(I3
I6635
I106
I52
tp1109
tp1110
sS'358384929394f4253'
p1111
((lp1112
g1023
a(I7
I4
tp1113
a(I3
I7406
I77
I54
tp1114
tp1115
sS'1573849394f33'
p1116
((lp1117
(I1
I5
tp1118
a(I0
I4
tp1119
a(I1
I37
I0
I0
tp1120
tp1121
sS'828384939495f434452535463'
p1122
((lp1123
(I9
I5
tp1124
a(I8
I6
tp1125
a(I3
I35839
I839
I54
tp1126
tp1127
sS'2242637394fb4'
p1128
((lp1129
(I6
I3
tp1130
a(I8
I3
tp1131
a(I10
I5
tp1132
a(I12
I3
tp1133
a(I1
I10
I0
I0
tp1134
tp1135
sS'838492939495f434445525354'
p1136
((lp1137
g1011
a(I8
I2
tp1138
a(I3
I34787
I1202
I53
tp1139
tp1140
sS'828384939495f424552535455'
p1141
((lp1142
(I9
I5
tp1143
a(I7
I3
tp1144
a(I3
I27999
I920
I51
tp1145
tp1146
sS'2130316373fc3'
p1147
((lp1148
(I7
I3
tp1149
a(I6
I2
tp1150
a(I2
I3941
I91
I29
tp1151
tp1152
sS'56738394f37'
p1153
((lp1154
g1057
a(I6
I3
tp1155
a(I3
I1859
I10
I30
tp1156
tp1157
sS'3240426373fc4'
p1158
((lp1159
(I4
I2
tp1160
a(I3
I1
tp1161
a(I2
I7318
I129
I43
tp1162
tp1163
sS'267383849394f23333442'
p1164
((lp1165
(I2
I6
tp1166
a(I1
I5
tp1167
a(I3
I10190
I208
I46
tp1168
tp1169
sS'8283849394f4245525462'
p1170
((lp1171
(I9
I3
tp1172
a(I7
I3
tp1173
a(I5
I1
tp1174
a(I5
I3
tp1175
a(I5
I5
tp1176
a(I3
I5
tp1177
a(I3
I41921
I905
I59
tp1178
tp1179
sS'738283849394f333435424554'
p1180
((lp1181
g1012
a(I6
I4
tp1182
a(I4
I4
tp1183
ag1166
a(I3
I26260
I667
I52
tp1184
tp1185
sS'36456383f67'
p1186
((lp1187
(I3
I6
tp1188
a(I2
I5
tp1189
a(I3
I2688
I42
I27
tp1190
tp1191
sS'828384869394f445253546263'
p1192
((lp1193
g384
a(I7
I2
tp1194
a(I9
I2
tp1195
a(I3
I60958
I1692
I59
tp1196
tp1197
sS'3582838494f51'
p1198
((lp1199
(I9
I4
tp1200
a(I7
I4
tp1201
a(I3
I4825
I62
I38
tp1202
tp1203
sS'838492939495f424344455254'
p1204
((lp1205
(I9
I2
tp1206
a(I8
I2
tp1207
a(I3
I17977
I461
I54
tp1208
tp1209
sS'4163849395f87'
p1210
((lp1211
g1081
a(I4
I2
tp1212
a(I3
I3544
I59
I38
tp1213
tp1214
sS'456673829394f74'
p1215
((lp1216
g929
a(I6
I4
tp1217
a(I8
I4
tp1218
a(I1
I5
I0
I0
tp1219
tp1220
sS'2635415482fc5'
p1221
((lp1222
(I4
I1
tp1223
a(I3
I0
tp1224
a(I2
I4855
I76
I37
tp1225
tp1226
sS'828384939495f424452535463'
p1227
((lp1228
g235
a(I8
I6
tp1229
a(I3
I53804
I1456
I52
tp1230
tp1231
sS'3582838494f527477'
p1232
((lp1233
(I8
I3
tp1234
a(I8
I5
tp1235
a(I6
I3
tp1236
ag1223
a(I3
I5504
I75
I37
tp1237
tp1238
sS'3541748284f97'
p1239
((lp1240
(I8
I4
tp1241
ag978
a(I3
I4180
I36
I38
tp1242
tp1243
sS'72828386f425354626392'
p1244
((lp1245
(I7
I2
tp1246
a(I5
I2
tp1247
a(I3
I2
tp1248
a(I3
I12285
I612
I25
tp1249
tp1250
sS'73839294f2665'
p1251
((lp1252
(I9
I2
tp1253
a(I7
I4
tp1254
a(I5
I6
tp1255
a(I3
I3443
I41
I34
tp1256
tp1257
sS'32718386f535463b2'
p1258
((lp1259
g1248
a(I2
I2
tp1260
a(I3
I7302
I328
I29
tp1261
tp1262
sS'7273828384f435152535486'
p1263
((lp1264
(I8
I2
tp1265
a(I6
I4
tp1266
a(I4
I2
tp1267
a(I6
I2
tp1268
a(I4
I0
tp1269
a(I3
I16490
I244
I73
tp1270
tp1271
sS'4263849395f97'
p1272
((lp1273
(I9
I5
tp1274
a(I7
I3
tp1275
a(I5
I3
tp1276
ag985
a(I3
I4042
I71
I36
tp1277
tp1278
sS'828384869394f425253546263'
p1279
((lp1280
g384
ag1246
a(I3
I75972
I1892
I63
tp1281
tp1282
sS'828384939495f424344455253'
p1283
((lp1284
g923
ag1149
a(I3
I23895
I995
I50
tp1285
tp1286
sS'738283849394f424344525354'
p1287
((lp1288
(I9
I4
tp1289
ag1043
a(I3
I40028
I1010
I49
tp1290
tp1291
sS'8384929395f425457'
p1292
((lp1293
(I9
I2
tp1294
a(I7
I4
tp1295
a(I3
I5666
I72
I48
tp1296
tp1297
sS'3386f54557192'
p1298
((lp1299
(I3
I3
tp1300
a(I2
I2
tp1301
a(I3
I1755
I116
I15
tp1302
tp1303
sS'45638394f57'
p1304
((lp1305
(I9
I4
tp1306
a(I7
I2
tp1307
a(I5
I4
tp1308
ag1188
a(I3
I2082
I37
I32
tp1309
tp1310
sS'828384939495f333442455354'
p1311
((lp1312
g1072
a(I7
I3
tp1313
a(I3
I14771
I347
I55
tp1314
tp1315
sS'56638394f47'
p1316
((lp1317
g1255
a(I4
I5
tp1318
a(I3
I1740
I28
I30
tp1319
tp1320
sS'738283849394f425253545564'
p1321
((lp1322
(I8
I3
tp1323
a(I6
I3
tp1324
a(I4
I1
tp1325
a(I4
I3
tp1326
a(I6
I5
tp1327
a(I4
I5
tp1328
a(I3
I6853
I156
I51
tp1329
tp1330
sS'2673849394f43'
p1331
((lp1332
g932
ag1118
a(I3
I3152
I47
I30
tp1333
tp1334
sS'5375828586f77'
p1335
((lp1336
g918
a(I8
I7
tp1337
a(I6
I7
tp1338
a(I1
I40
I0
I0
tp1339
tp1340
sS'357483849394f4263'
p1341
((lp1342
g114
a(I7
I3
tp1343
a(I5
I3
tp1344
a(I3
I1
tp1345
a(I1
I26
I0
I0
tp1346
tp1347
sS'3541647482fa6'
p1348
((lp1349
(I7
I4
tp1350
a(I5
I4
tp1351
a(I3
I5304
I84
I32
tp1352
tp1353
sS'828386929394f525462636473'
p1354
((lp1355
g1195
a(I7
I4
tp1356
a(I7
I2
tp1357
a(I3
I38083
I879
I59
tp1358
tp1359
sS'444663739394f97'
p1360
((lp1361
g912
a(I5
I3
tp1362
a(I3
I5
tp1363
a(I3
I6614
I81
I50
tp1364
tp1365
sS'358384929394f4264'
p1366
((lp1367
(I9
I3
tp1368
a(I7
I5
tp1369
a(I5
I3
tp1370
a(I3
I1
tp1371
a(I1
I49
I0
I0
tp1372
tp1373
sS'828384869394f455253546364'
p1374
((lp1375
g1073
a(I7
I6
tp1376
a(I3
I65608
I1971
I60
tp1377
tp1378
sS'243544638394fc5'
p1379
((lp1380
g1363
a(I1
I3
tp1381
a(I2
I10343
I121
I55
tp1382
tp1383
sS'22718386f535463c3'
p1384
((lp1385
(I8
I6
tp1386
a(I7
I5
tp1387
a(I2
I8708
I965
I31
tp1388
tp1389
sS'466373829394f5387'
p1390
((lp1391
(I8
I2
tp1392
a(I6
I4
tp1393
a(I6
I2
tp1394
a(I4
I4
tp1395
a(I3
I6853
I55
I58
tp1396
tp1397
sS'7383849294f26535463'
p1398
((lp1399
(I8
I4
tp1400
a(I6
I2
tp1401
a(I4
I4
tp1402
a(I6
I4
tp1403
a(I3
I15489
I389
I51
tp1404
tp1405
sS'354446639394fa7'
p1406
((lp1407
(I9
I3
tp1408
a(I8
I3
tp1409
a(I3
I5475
I49
I47
tp1410
tp1411
sS'838492939495f424345535462'
p1412
((lp1413
(I9
I4
tp1414
a(I7
I2
tp1415
a(I5
I2
tp1416
a(I3
I4
tp1417
a(I5
I6
tp1418
a(I3
I71409
I1927
I59
tp1419
tp1420
sS'3031326373fc4'
p1421
((lp1422
g1046
a(I2
I1
tp1423
a(I2
I4263
I96
I32
tp1424
tp1425
sS'2286f54558192'
p1426
((lp1427
g1301
a(I1
I2
tp1428
a(I3
I1588
I192
I7
tp1429
tp1430
sS'838492939495f424344535455'
p1431
((lp1432
g1023
ag1392
a(I3
I32653
I1100
I54
tp1433
tp1434
sS'7282869394f5462636492'
p1435
((lp1436
(I9
I3
tp1437
a(I9
I1
tp1438
a(I7
I3
tp1439
a(I5
I3
tp1440
a(I7
I5
tp1441
a(I3
I15381
I557
I43
tp1442
tp1443
sS'7275828694f4562'
p1444
((lp1445
g1357
ag948
a(I3
I7533
I130
I36
tp1446
tp1447
sS'14456383f87'
p1448
((lp1449
(I1
I4
tp1450
a(I0
I3
tp1451
a(I1
I26
I0
I0
tp1452
tp1453
sS'3142638493fa6'
p1454
((lp1455
(I9
I3
tp1456
a(I9
I4
tp1457
a(I3
I4401
I78
I36
tp1458
tp1459
sS'838492939495f434445535464'
p1460
((lp1461
(I9
I5
tp1462
a(I7
I3
tp1463
a(I5
I5
tp1464
a(I3
I5
tp1465
a(I3
I63154
I1537
I56
tp1466
tp1467
sS'2242638494fc4'
p1468
((lp1469
(I8
I4
tp1470
a(I7
I3
tp1471
a(I2
I6876
I133
I42
tp1472
tp1473
sS'25456383f77'
p1474
((lp1475
g1189
ag1450
a(I3
I1457
I17
I20
tp1476
tp1477
sS'3132406373fc3'
p1478
((lp1479
g1269
a(I3
I0
tp1480
a(I2
I6026
I111
I37
tp1481
tp1482
sS'3571748384f70'
p1483
((lp1484
(I8
I4
tp1485
a(I8
I2
tp1486
a(I6
I0
tp1487
a(I8
I0
tp1488
a(I1
I24
I0
I0
tp1489
tp1490
sS'4072738384f435497'
p1491
((lp1492
(I8
I4
tp1493
a(I8
I2
tp1494
a(I6
I4
tp1495
a(I4
I4
tp1496
ag1160
a(I3
I7020
I90
I45
tp1497
tp1498
sS'7282848693f435354556392'
p1499
((lp1500
(I8
I4
tp1501
a(I8
I3
tp1502
a(I3
I38297
I1407
I45
tp1503
tp1504
sS'4174849395f77'
p1505
((lp1506
g1295
a(I6
I3
tp1507
a(I3
I4522
I83
I41
tp1508
tp1509
sS'828384939495f424452535455'
p1510
((lp1511
g911
a(I7
I3
tp1512
a(I3
I18052
I346
I53
tp1513
tp1514
sS'4042727383fa6'
p1515
((lp1516
(I8
I3
tp1517
a(I6
I3
tp1518
a(I3
I3860
I56
I35
tp1519
tp1520
sS'2130316263fc4'
p1521
((lp1522
g1480
a(I1
I2
tp1523
a(I2
I3982
I91
I29
tp1524
tp1525
sS'157383849394f13233442'
p1526
((lp1527
g1167
a(I0
I4
tp1528
a(I1
I51
I0
I0
tp1529
tp1530
sS'2630355482fc4'
p1531
((lp1532
g1351
a(I4
I3
tp1533
a(I2
I4747
I101
I33
tp1534
tp1535
sS'3541828494f87'
p1536
((lp1537
(I9
I4
tp1538
ag1350
a(I3
I4346
I41
I38
tp1539
tp1540
sS'457382849394f6475'
p1541
((lp1542
g1001
a(I6
I6
tp1543
a(I3
I800
I34
I1
tp1544
tp1545
sS'1286f44548192'
p1546
((lp1547
g1428
a(I0
I3
tp1548
a(I1
I10
I0
I0
tp1549
tp1550
sss.