(dp0
I1
(dp1
S'north'
p2
(dp3
S'3373b3f5685'
p4
((lp5
(I8
I5
tp6
a(I9
I4
tp7
a(I1
I17
I0
I0
tp8
tp9
sS'7384b3f535667'
p10
((lp11
(I6
I7
tp12
a(I7
I6
tp13
a(I1
I21
I0
I0
tp14
tp15
sS'8384b3f455356'
p16
((lp17
(I4
I5
tp18
ag12
a(I1
I25
I0
I0
tp19
tp20
sS'2373b3f5694'
p21
((lp22
g7
a(I10
I5
tp23
a(I1
I17
I0
I0
tp24
tp25
sS'4473b3f5676'
p26
((lp27
g13
ag6
a(I1
I17
I0
I0
tp28
tp29
sS'7483849394f43455356'
p30
((lp31
(I4
I3
tp32
a(I6
I3
tp33
a(I8
I5
tp34
a(I10
I3
tp35
a(I1
I38
I0
I0
tp36
tp37
sS'0373b3f56b5'
p38
((lp39
(ta(I0
I1
I0
I0
tp40
tp41
sS'838492939495f424344455354'
p42
((lp43
(I4
I2
tp44
a(I6
I4
tp45
a(I1
I59
I0
I0
tp46
tp47
sS'0473b3f56b5'
p48
((lp49
(ta(I0
I1
I0
I0
tp50
tp51
sS'1373b3f56a5'
p52
((lp53
g23
a(I11
I5
tp54
a(I1
I17
I0
I0
tp55
tp56
sS'338384929394f43455354'
p57
((lp58
(I5
I4
tp59
a(I3
I2
tp60
a(I3
I4
tp61
a(I5
I6
tp62
a(I1
I38
I0
I0
tp63
tp64
ssS'south'
p65
(dp66
S'4473b3f5685'
p67
((lp68
(I4
I4
tp69
a(I3
I3
tp70
a(I1
I25
I0
I0
tp71
tp72
sS'3373b3f5694'
p73
((lp74
g70
a(I2
I3
tp75
a(I1
I25
I0
I0
tp76
tp77
sS'7384b3f535676'
p78
((lp79
(I8
I4
tp80
a(I6
I2
tp81
ag69
a(I1
I26
I0
I0
tp82
tp83
sS'8384929394f43455356'
p84
((lp85
(I9
I2
tp86
a(I7
I4
tp87
a(I1
I50
I0
I0
tp88
tp89
sS'1373b3f56b5'
p90
((lp91
(I1
I3
tp92
a(I0
I3
tp93
a(I1
I18
I0
I0
tp94
tp95
sS'838492939495f424344455354'
p96
((lp97
(I9
I2
tp98
a(I7
I4
tp99
a(I1
I59
I0
I0
tp100
tp101
sS'838493f455356a3'
p102
((lp103
(I9
I3
tp104
a(I11
I3
tp105
a(I1
I28
I0
I0
tp106
tp107
sS'358384929394f4264'
p108
((lp109
(I9
I3
tp110
a(I7
I5
tp111
a(I5
I3
tp112
a(I3
I1
tp113
a(I1
I41
I0
I0
tp114
tp115
sS'8384b3f535667'
p116
((lp117
(I8
I3
tp118
a(I7
I3
tp119
a(I1
I25
I0
I0
tp120
tp121
sS'838492939495f434445535464'
p122
((lp123
(I9
I5
tp124
a(I7
I3
tp125
a(I5
I5
tp126
a(I3
I3
tp127
a(I1
I65
I0
I0
tp128
tp129
sS'0373b3f56b5'
p130
((lp131
g93
a(I0
I4
tp132
a(I1
I18
I0
I0
tp133
tp134
sS'2373b3f56a5'
p135
((lp136
g75
ag92
a(I1
I25
I0
I0
tp137
tp138
sS'838492939495f424344455463'
p139
((lp140
(I9
I5
tp141
a(I7
I3
tp142
a(I5
I3
tp143
a(I3
I3
tp144
a(I5
I5
tp145
a(I3
I5
tp146
a(I1
I79
I0
I0
tp147
tp148
sS'0473b3f56b5'
p149
((lp150
g132
a(I0
I3
tp151
a(I1
I18
I0
I0
tp152
tp153
sssI2
(dp154
g2
(dp155
S'678392939495f525354556364'
p156
((lp157
(I6
I3
tp158
a(I4
I3
tp159
a(I2
I1122
I0
I56
tp160
tp161
sS'148392939495f525354667787'
p162
((lp163
(I5
I2
tp164
a(I4
I1
tp165
a(I2
I1920
I0
I45
tp166
tp167
sS'478392939495f525354556364'
p168
((lp169
(I6
I4
tp170
a(I4
I4
tp171
a(I6
I6
tp172
a(I2
I816
I0
I55
tp173
tp174
sS'778392939495f435253545564'
p175
((lp176
(I4
I3
tp177
ag158
a(I2
I905
I0
I50
tp178
tp179
sS'828384939495f434445525354'
p180
((lp181
(I4
I5
tp182
a(I6
I3
tp183
a(I2
I499
I0
I53
tp184
tp185
sS'258392939495f525354636677'
p186
((lp187
(I6
I3
tp188
a(I4
I3
tp189
a(I6
I5
tp190
a(I6
I7
tp191
a(I8
I7
tp192
a(I2
I328
I0
I42
tp193
tp194
sS'838492939495f424344455354'
p195
((lp196
(I4
I2
tp197
ag164
a(I2
I697
I0
I52
tp198
tp199
sS'838492939495f434452535463'
p200
((lp201
(I4
I4
tp202
a(I5
I5
tp203
a(I2
I751
I0
I46
tp204
tp205
sS'368392939495f525354556366'
p206
((lp207
g203
a(I7
I7
tp208
a(I2
I357
I0
I51
tp209
tp210
sS'838692939495f435253545563'
p211
((lp212
(I6
I3
tp213
ag170
a(I2
I1117
I0
I38
tp214
tp215
sS'578392939495f435253545564'
p216
((lp217
g159
ag188
a(I2
I701
I0
I51
tp218
tp219
ssg65
(dp220
S'838492939495f424445525354'
p221
((lp222
(I9
I2
tp223
a(I8
I2
tp224
a(I2
I1042
I0
I53
tp225
tp226
sS'838492939495f424445535465'
p227
((lp228
(I9
I3
tp229
a(I7
I5
tp230
a(I5
I5
tp231
a(I3
I3
tp232
a(I5
I1
tp233
a(I2
I1145
I0
I60
tp234
tp235
sS'358384929394f4244'
p236
((lp237
(I3
I5
tp238
a(I5
I3
tp239
a(I3
I1
tp240
a(I1
I57
I0
I0
tp241
tp242
sS'1525647483fa0'
p243
((lp244
(I1
I5
tp245
a(I0
I4
tp246
a(I1
I34
I0
I0
tp247
tp248
sS'678392939495f435253545564'
p249
((lp250
(I6
I7
tp251
a(I5
I7
tp252
a(I2
I938
I0
I39
tp253
tp254
sS'748283848593f424445525354'
p255
((lp256
(I8
I3
tp257
a(I6
I5
tp258
a(I4
I3
tp259
a(I4
I1
tp260
a(I2
I435
I0
I59
tp261
tp262
sS'7482838493f4043455354'
p263
((lp264
(I8
I4
tp265
a(I6
I4
tp266
a(I4
I2
tp267
a(I4
I4
tp268
a(I4
I6
tp269
a(I2
I498
I0
I45
tp270
tp271
sS'358384929394f4264'
p272
((lp273
(I9
I3
tp274
a(I7
I5
tp275
a(I5
I3
tp276
a(I3
I1
tp277
a(I1
I41
I0
I0
tp278
tp279
sS'738283849394f434445525354'
p280
((lp281
(I9
I4
tp282
a(I8
I5
tp283
a(I2
I1359
I0
I50
tp284
tp285
sS'358283849394f4452'
p286
((lp287
(I3
I5
tp288
a(I5
I3
tp289
a(I5
I1
tp290
a(I1
I57
I0
I0
tp291
tp292
sS'73748284f304345'
p293
((lp294
(I8
I2
tp295
a(I6
I4
tp296
a(I2
I164
I0
I32
tp297
tp298
sS'828384939495f434445525354'
p299
((lp300
(I9
I5
tp301
a(I7
I3
tp302
a(I2
I954
I0
I52
tp303
tp304
sS'838492939495f424344455254'
p305
((lp306
(I9
I2
tp307
a(I8
I2
tp308
a(I2
I857
I0
I53
tp309
tp310
sS'478392939495f525354556366'
p311
((lp312
(I4
I7
tp313
a(I3
I6
tp314
a(I2
I675
I0
I42
tp315
tp316
sS'738283848594f424344455355'
p317
((lp318
(I9
I4
tp319
a(I7
I2
tp320
a(I7
I4
tp321
a(I2
I1137
I0
I53
tp322
tp323
sS'2564748393f4470'
p324
((lp325
(I9
I3
tp326
a(I7
I3
tp327
a(I7
I5
tp328
a(I5
I3
tp329
a(I3
I5
tp330
a(I1
I5
tp331
a(I2
I193
I0
I43
tp332
tp333
sS'518384929495f455462'
p334
((lp335
(I9
I4
tp336
a(I7
I2
tp337
a(I5
I2
tp338
a(I5
I0
tp339
a(I2
I677
I0
I60
tp340
tp341
sS'578392939495f525354556364'
p342
((lp343
g252
ag313
a(I2
I1027
I0
I38
tp344
tp345
sS'505183849295f4553'
p346
((lp347
g339
a(I5
I2
tp348
a(I5
I4
tp349
a(I3
I6
tp350
a(I1
I51
I0
I0
tp351
tp352
sS'828384939495f424344455354'
p353
((lp354
(I9
I5
tp355
a(I7
I3
tp356
a(I2
I1001
I0
I52
tp357
tp358
sS'838492939495f424344455463'
p359
((lp360
(I9
I5
tp361
a(I7
I3
tp362
a(I5
I3
tp363
a(I3
I3
tp364
a(I5
I5
tp365
ag238
a(I2
I997
I0
I70
tp366
tp367
sS'738283848593f424344455354'
p368
((lp369
(I9
I3
tp370
ag319
a(I2
I1096
I0
I39
tp371
tp372
sS'236673849394f43'
p373
((lp374
g229
a(I7
I5
tp375
a(I5
I7
tp376
a(I2
I153
I0
I48
tp377
tp378
sS'748283848593f434445525354'
p379
((lp380
g283
a(I6
I3
tp381
a(I4
I1
tp382
a(I2
I1334
I0
I54
tp383
tp384
sS'738283848594f334244525354'
p385
((lp386
(I8
I3
tp387
a(I6
I3
tp388
a(I4
I1
tp389
a(I4
I3
tp390
a(I2
I3
tp391
a(I2
I323
I0
I57
tp392
tp393
sS'258392939495f525354667787'
p394
((lp395
(I2
I5
tp396
a(I1
I4
tp397
a(I2
I466
I0
I44
tp398
tp399
sS'338384929394f42444565'
p400
((lp401
(I9
I3
tp402
a(I7
I5
tp403
a(I5
I5
tp404
a(I3
I5
tp405
a(I5
I3
tp406
a(I3
I1
tp407
a(I1
I46
I0
I0
tp408
tp409
sS'828384939495f444552535463'
p410
((lp411
(I8
I2
tp412
a(I9
I2
tp413
a(I2
I1617
I0
I52
tp414
tp415
sS'13335484f71'
p416
((lp417
(I1
I3
tp418
a(I0
I3
tp419
a(I1
I26
I0
I0
tp420
tp421
sS'4674828393f4044'
p422
((lp423
g269
a(I3
I6
tp424
a(I2
I287
I0
I40
tp425
tp426
sS'738283848594f434445525354'
p427
((lp428
g319
a(I7
I2
tp429
a(I7
I4
tp430
a(I2
I1391
I0
I56
tp431
tp432
sS'738283849394f344244535456'
p433
((lp434
(I8
I3
tp435
a(I6
I3
tp436
a(I4
I3
tp437
a(I4
I5
tp438
a(I2
I3
tp439
a(I2
I280
I0
I56
tp440
tp441
sS'148392939495f415354667787'
p442
((lp443
g397
a(I0
I3
tp444
a(I1
I42
I0
I0
tp445
tp446
sS'2574828393f4460'
p447
((lp448
g412
a(I8
I4
tp449
a(I6
I4
tp450
a(I2
I223
I0
I41
tp451
tp452
sS'7482848593f30444553'
p453
((lp454
(I8
I5
tp455
a(I6
I3
tp456
a(I4
I3
tp457
a(I2
I318
I0
I48
tp458
tp459
sS'234051576694f43'
p460
((lp461
g439
a(I1
I3
tp462
a(I2
I160
I0
I37
tp463
tp464
sS'538384929394f4243444555'
p465
((lp466
g363
a(I3
I3
tp467
a(I5
I1
tp468
a(I2
I934
I0
I51
tp469
tp470
sS'838492939495f444552536372'
p471
((lp472
(I8
I4
tp473
a(I8
I2
tp474
a(I6
I2
tp475
a(I4
I2
tp476
a(I6
I4
tp477
a(I2
I976
I0
I62
tp478
tp479
sS'8392939495f444565'
p480
((lp481
g413
a(I7
I4
tp482
a(I5
I6
tp483
a(I3
I4
tp484
a(I5
I4
tp485
a(I1
I40
I0
I0
tp486
tp487
sS'738283849394f424345525354'
p488
((lp489
(I9
I4
tp490
a(I8
I5
tp491
a(I2
I1506
I0
I52
tp492
tp493
sS'248384929394f4264'
p494
((lp495
(I9
I3
tp496
a(I7
I5
tp497
a(I5
I3
tp498
a(I3
I1
tp499
a(I1
I41
I0
I0
tp500
tp501
sS'737482838485f424344455354'
p502
((lp503
g356
a(I7
I5
tp504
ag326
a(I2
I1498
I0
I52
tp505
tp506
sS'828384939495f434445525463'
p507
((lp508
(I9
I5
tp509
a(I7
I3
tp510
a(I5
I3
tp511
a(I3
I3
tp512
a(I5
I5
tp513
ag288
a(I2
I871
I0
I58
tp514
tp515
sS'248384929394f4245'
p516
((lp517
(I9
I2
tp518
a(I7
I4
tp519
a(I2
I242
I0
I54
tp520
tp521
sS'738283849394f424344455355'
p522
((lp523
(I9
I4
tp524
ag455
a(I2
I1367
I0
I49
tp525
tp526
sS'2535647483f90'
p527
((lp528
(I3
I5
tp529
ag245
a(I2
I152
I0
I35
tp530
tp531
sS'828384939495f424344455253'
p532
((lp533
(I9
I5
tp534
a(I7
I3
tp535
a(I2
I1169
I0
I52
tp536
tp537
sS'828384939495f434452535463'
p538
((lp539
g412
a(I9
I2
tp540
a(I2
I1315
I0
I52
tp541
tp542
sS'235762667394f45'
p543
((lp544
(I7
I3
tp545
a(I5
I1
tp546
a(I2
I240
I0
I43
tp547
tp548
sS'22335484f61'
p549
((lp550
(I2
I2
tp551
ag418
a(I2
I154
I0
I26
tp552
tp553
sS'247483849394f4244'
p554
((lp555
(I2
I4
tp556
a(I1
I3
tp557
a(I2
I277
I0
I51
tp558
tp559
sS'2564747583f4480'
p560
((lp561
g328
a(I5
I3
tp562
ag529
a(I1
I5
tp563
a(I2
I182
I0
I42
tp564
tp565
sS'828384939495f344244535455'
p566
((lp567
(I9
I5
tp568
ag545
a(I2
I850
I0
I54
tp569
tp570
sS'778392939495f525354556364'
p571
((lp572
(I7
I7
tp573
ag251
a(I2
I1166
I0
I37
tp574
tp575
sS'738283848593f424344525354'
p576
((lp577
(I9
I3
tp578
a(I9
I4
tp579
a(I2
I1214
I0
I41
tp580
tp581
sS'838492939495f434445525354'
p582
((lp583
(I9
I2
tp584
ag412
a(I2
I1071
I0
I53
tp585
tp586
sS'3674828393f4450'
p587
((lp588
g424
a(I2
I5
tp589
a(I2
I205
I0
I39
tp590
tp591
sS'137483849394f4245'
p592
((lp593
g557
a(I0
I3
tp594
a(I1
I51
I0
I0
tp595
tp596
sS'838492939495f435253545563'
p597
((lp598
(I8
I4
tp599
a(I8
I2
tp600
a(I10
I4
tp601
a(I8
I6
tp602
a(I2
I1472
I0
I52
tp603
tp604
sS'358384929394f4255'
p605
((lp606
g238
ag556
a(I2
I321
I0
I53
tp607
tp608
sS'368392939495f525354636677'
p609
((lp610
g314
ag396
a(I2
I782
I0
I42
tp611
tp612
sS'237382849394f425455'
p613
((lp614
(I8
I2
tp615
a(I6
I4
tp616
a(I4
I4
tp617
a(I6
I6
tp618
a(I2
I368
I0
I51
tp619
tp620
sS'237382848594f345354'
p621
((lp622
g391
a(I4
I5
tp623
a(I6
I3
tp624
a(I4
I3
tp625
a(I1
I73
I0
I0
tp626
tp627
sS'235766738494f44'
p628
((lp629
(I8
I4
tp630
a(I6
I2
tp631
a(I2
I201
I0
I47
tp632
tp633
sS'134051576694f44'
p634
((lp635
g462
a(I0
I3
tp636
a(I1
I34
I0
I0
tp637
tp638
sS'33647484f41'
p639
((lp640
g321
a(I5
I4
tp641
a(I2
I109
I0
I28
tp642
tp643
sS'748283848593f424344455355'
p644
((lp645
g326
a(I7
I3
tp646
a(I2
I1164
I0
I51
tp647
tp648
sS'738283849394f434445525463'
p649
((lp650
g302
a(I5
I3
tp651
a(I3
I3
tp652
a(I5
I5
tp653
a(I3
I5
tp654
a(I2
I1500
I0
I47
tp655
tp656
sS'838492939495f424344455355'
p657
((lp658
g518
a(I8
I2
tp659
a(I2
I848
I0
I53
tp660
tp661
sS'838692939495f435253545564'
p662
((lp663
g602
ag573
a(I2
I804
I0
I52
tp664
tp665
sS'33546484f51'
p666
((lp667
g296
a(I4
I4
tp668
ag551
a(I2
I114
I0
I30
tp669
tp670
sS'838492939495f344244455354'
p671
((lp672
(I9
I2
tp673
ag615
a(I2
I1041
I0
I53
tp674
tp675
sS'235157626694f44'
p676
((lp677
g631
a(I4
I0
tp678
a(I2
I178
I0
I40
tp679
tp680
sS'74828493f304245'
p681
((lp682
g326
a(I7
I5
tp683
a(I7
I3
tp684
a(I2
I206
I0
I31
tp685
tp686
sS'64737484f303445'
p687
((lp688
g684
a(I5
I5
tp689
a(I3
I5
tp690
a(I3
I3
tp691
a(I2
I133
I0
I32
tp692
tp693
sssI3
(dp694
g2
(dp695
S'82b4f70c5'
p696
((lp697
(I12
I5
tp698
a(I13
I4
tp699
a(I1
I11
I0
I0
tp700
tp701
sS'828384929394f445253546365'
p702
((lp703
(I6
I5
tp704
a(I6
I6
tp705
a(I3
I42216
I827
I56
tp706
tp707
sS'728283848693f435253545563'
p708
((lp709
(I5
I2
tp710
a(I7
I4
tp711
a(I9
I2
tp712
a(I3
I20465
I531
I45
tp713
tp714
sS'8294a4f7096'
p715
((lp716
(I9
I6
tp717
a(I10
I6
tp718
a(I3
I1236
I123
I9
tp719
tp720
sS'828384939495f434445525354'
p721
((lp722
g182
a(I6
I3
tp723
a(I3
I18061
I447
I53
tp724
tp725
sS'8284a5f7077'
p726
((lp727
(I7
I7
tp728
a(I8
I6
tp729
a(I3
I782
I82
I7
tp730
tp731
sS'7282838693f435354556392'
p732
((lp733
(I5
I3
tp734
a(I7
I3
tp735
a(I9
I1
tp736
a(I3
I37034
I1133
I44
tp737
tp738
sS'33728386f54559192'
p739
((lp740
(I9
I1
tp741
a(I9
I3
tp742
a(I7
I3
tp743
a(I7
I1
tp744
a(I3
I13092
I584
I28
tp745
tp746
sS'828384929394f525354636466'
p747
((lp748
g705
ag728
a(I3
I49588
I1083
I59
tp749
tp750
sS'7384a5f6177'
p751
((lp752
(I6
I1
tp753
a(I7
I0
tp754
a(I3
I1569
I208
I6
tp755
tp756
sS'82a4b4f70a6'
p757
((lp758
g718
a(I11
I6
tp759
a(I3
I1177
I106
I8
tp760
tp761
sS'738384f527795'
p762
((lp763
(I5
I2
tp764
ag753
a(I3
I2473
I196
I16
tp765
tp766
sS'8283929394a4f445253546366'
p767
((lp768
(I4
I4
tp769
a(I6
I2
tp770
a(I6
I4
tp771
a(I3
I77549
I1895
I52
tp772
tp773
sS'828384869394f434452535463'
p774
((lp775
(I4
I4
tp776
a(I5
I5
tp777
a(I3
I42136
I1004
I55
tp778
tp779
sS'1286f54558192'
p780
((lp781
(I5
I5
tp782
a(I4
I4
tp783
a(I2
I5111
I211
I32
tp784
tp785
sS'2286f54557192'
p786
((lp787
g744
a(I8
I1
tp788
a(I3
I3169
I110
I25
tp789
tp790
sS'828492939495f434445525354'
p791
((lp792
(I4
I5
tp793
a(I6
I3
tp794
a(I3
I18909
I370
I53
tp795
tp796
sS'828494f7086'
p797
((lp798
g729
ag717
a(I3
I1303
I138
I9
tp799
tp800
sS'82a4b5f70b6'
p801
((lp802
g759
ag698
a(I3
I1191
I110
I7
tp803
tp804
sS'828392939495f434452535463'
p805
((lp806
(I4
I3
tp807
ag704
a(I3
I59439
I1472
I48
tp808
tp809
sS'838492939495f424344455354'
p810
((lp811
(I4
I2
tp812
a(I5
I2
tp813
a(I3
I24013
I539
I52
tp814
tp815
sS'558283849294f5253546377'
p816
((lp817
(I5
I3
tp818
a(I7
I3
tp819
a(I9
I1
tp820
a(I9
I3
tp821
a(I9
I5
tp822
a(I3
I16984
I452
I37
tp823
tp824
ssg65
(dp825
S'1286f44548192'
p826
((lp827
(I1
I2
tp828
a(I0
I3
tp829
a(I1
I10
I0
I0
tp830
tp831
sS'3142638494fb5'
p832
((lp833
(I3
I1
tp834
a(I2
I2
tp835
a(I3
I5471
I117
I39
tp836
tp837
sS'838492939495f424445525354'
p838
((lp839
(I9
I2
tp840
a(I8
I2
tp841
a(I3
I38405
I1448
I53
tp842
tp843
sS'36456383f67'
p844
((lp845
(I3
I6
tp846
a(I2
I5
tp847
a(I3
I2688
I42
I27
tp848
tp849
sS'444663739394f97'
p850
((lp851
(I7
I3
tp852
a(I5
I3
tp853
a(I3
I5
tp854
a(I3
I6614
I81
I50
tp855
tp856
sS'358384929394f4264'
p857
((lp858
(I9
I3
tp859
a(I7
I5
tp860
a(I5
I3
tp861
a(I3
I1
tp862
a(I1
I49
I0
I0
tp863
tp864
sS'8283849394f455254636477'
p865
((lp866
(I9
I3
tp867
a(I7
I3
tp868
a(I5
I3
tp869
a(I5
I5
tp870
a(I3
I5
tp871
a(I3
I42103
I934
I61
tp872
tp873
sS'828384869394f455253546364'
p874
((lp875
(I8
I6
tp876
a(I7
I6
tp877
a(I3
I65608
I1971
I60
tp878
tp879
sS'243544638394fc5'
p880
((lp881
g854
a(I1
I3
tp882
a(I2
I10343
I121
I55
tp883
tp884
sS'157383849394f13233442'
p885
((lp886
(I1
I5
tp887
a(I0
I4
tp888
a(I1
I51
I0
I0
tp889
tp890
sS'4163849395f87'
p891
((lp892
(I4
I1
tp893
a(I4
I2
tp894
a(I3
I3544
I59
I38
tp895
tp896
sS'828384939495f434452535455'
p897
((lp898
(I9
I5
tp899
ag852
a(I3
I26804
I869
I51
tp900
tp901
sS'456673829394f74'
p902
((lp903
g841
a(I6
I4
tp904
a(I8
I4
tp905
a(I1
I5
I0
I0
tp906
tp907
sS'8384929394f26435354'
p908
((lp909
(I9
I3
tp910
a(I7
I3
tp911
a(I3
I8810
I162
I47
tp912
tp913
sS'838492939495f424344455463'
p914
((lp915
(I9
I5
tp916
a(I7
I3
tp917
a(I5
I3
tp918
a(I3
I3
tp919
a(I5
I5
tp920
a(I3
I5
tp921
a(I3
I61731
I1279
I68
tp922
tp923
sS'828384939495f434452535463'
p924
((lp925
(I9
I5
tp926
a(I8
I6
tp927
a(I3
I35839
I839
I54
tp928
tp929
sS'2635415482fc5'
p930
((lp931
(I4
I1
tp932
a(I3
I0
tp933
a(I2
I4855
I76
I37
tp934
tp935
sS'838492939495f424345535462'
p936
((lp937
(I9
I4
tp938
a(I7
I2
tp939
a(I5
I2
tp940
a(I3
I4
tp941
a(I5
I6
tp942
a(I3
I71409
I1927
I59
tp943
tp944
sS'3582838494f527477'
p945
((lp946
(I8
I3
tp947
a(I8
I5
tp948
a(I6
I3
tp949
ag932
a(I3
I5504
I75
I37
tp950
tp951
sS'7382849394f365355'
p952
((lp953
g841
a(I6
I4
tp954
a(I4
I6
tp955
a(I2
I6
tp956
a(I3
I14143
I250
I44
tp957
tp958
sS'157382839394f142433'
p959
((lp960
(I1
I5
tp961
a(I0
I4
tp962
a(I1
I50
I0
I0
tp963
tp964
sS'828384939495f444552535463'
p965
((lp966
(I9
I5
tp967
ag876
a(I3
I34758
I870
I54
tp968
tp969
sS'7483849395f425467'
p970
((lp971
(I8
I3
tp972
a(I6
I5
tp973
a(I4
I3
tp974
ag893
a(I3
I10912
I131
I52
tp975
tp976
sS'2286f54558192'
p977
((lp978
(I2
I2
tp979
ag828
a(I3
I1588
I192
I7
tp980
tp981
sS'357483849394f4254'
p982
((lp983
(I8
I3
tp984
a(I6
I5
tp985
a(I4
I3
tp986
a(I4
I1
tp987
a(I1
I18
I0
I0
tp988
tp989
sS'72838693f435455639192'
p990
((lp991
(I9
I3
tp992
a(I7
I3
tp993
a(I5
I3
tp994
a(I3
I3
tp995
a(I3
I21179
I798
I31
tp996
tp997
sS'467382839394f5377'
p998
((lp999
(I8
I3
tp1000
a(I6
I3
tp1001
a(I3
I12152
I90
I56
tp1002
tp1003
sS'354446638394fb6'
p1004
((lp1005
(I4
I6
tp1006
a(I2
I4
tp1007
a(I3
I6635
I106
I52
tp1008
tp1009
sS'838492939495f424344535455'
p1010
((lp1011
g840
a(I8
I2
tp1012
a(I3
I32653
I1100
I54
tp1013
tp1014
sS'828384869394f435253545563'
p1015
((lp1016
(I9
I4
tp1017
a(I7
I2
tp1018
a(I3
I29043
I573
I59
tp1019
tp1020
sS'73839294f2665'
p1021
((lp1022
(I9
I2
tp1023
a(I7
I4
tp1024
a(I5
I6
tp1025
a(I3
I3443
I41
I34
tp1026
tp1027
sS'358384929394f4253'
p1028
((lp1029
g840
a(I7
I4
tp1030
a(I3
I7406
I77
I54
tp1031
tp1032
sS'14456383f87'
p1033
((lp1034
(I1
I4
tp1035
a(I0
I3
tp1036
a(I1
I26
I0
I0
tp1037
tp1038
sS'738283849394f333436424553'
p1039
((lp1040
(I8
I4
tp1041
a(I6
I2
tp1042
a(I4
I4
tp1043
a(I4
I6
tp1044
a(I2
I6
tp1045
a(I3
I13486
I286
I56
tp1046
tp1047
sS'4263849395f97'
p1048
((lp1049
(I9
I5
tp1050
a(I7
I3
tp1051
a(I5
I3
tp1052
ag834
a(I3
I4042
I71
I36
tp1053
tp1054
sS'3142638493fa6'
p1055
((lp1056
(I9
I3
tp1057
a(I9
I4
tp1058
a(I3
I4401
I78
I36
tp1059
tp1060
sS'3541546482fb6'
p1061
((lp1062
(I6
I4
tp1063
a(I4
I4
tp1064
a(I2
I6
tp1065
a(I3
I5173
I54
I35
tp1066
tp1067
sS'1573849394f33'
p1068
((lp1069
(I1
I5
tp1070
a(I0
I4
tp1071
a(I1
I37
I0
I0
tp1072
tp1073
sS'838492939495f434445535464'
p1074
((lp1075
(I9
I5
tp1076
a(I7
I3
tp1077
a(I5
I5
tp1078
a(I3
I5
tp1079
a(I3
I63154
I1537
I56
tp1080
tp1081
sS'2242638494fc4'
p1082
((lp1083
(I8
I4
tp1084
a(I7
I3
tp1085
a(I2
I6876
I133
I42
tp1086
tp1087
sS'25456383f77'
p1088
((lp1089
g847
ag1035
a(I3
I1457
I17
I20
tp1090
tp1091
sS'2242637394fb4'
p1092
((lp1093
(I6
I3
tp1094
a(I8
I3
tp1095
a(I10
I5
tp1096
a(I12
I3
tp1097
a(I1
I10
I0
I0
tp1098
tp1099
sS'828384939495f424552535455'
p1100
((lp1101
(I9
I5
tp1102
a(I7
I3
tp1103
a(I3
I27999
I920
I51
tp1104
tp1105
sS'8384929395f425457'
p1106
((lp1107
(I9
I2
tp1108
a(I7
I4
tp1109
a(I3
I5666
I72
I48
tp1110
tp1111
sS'3541748284f97'
p1112
((lp1113
(I8
I4
tp1114
ag1063
a(I3
I4180
I36
I38
tp1115
tp1116
sS'838492939495f434445525354'
p1117
((lp1118
(I9
I2
tp1119
a(I8
I2
tp1120
a(I3
I34787
I1202
I53
tp1121
tp1122
sS'3386f54557192'
p1123
((lp1124
(I3
I3
tp1125
ag979
a(I3
I1755
I116
I15
tp1126
tp1127
sS'45638394f57'
p1128
((lp1129
(I9
I4
tp1130
a(I7
I2
tp1131
a(I5
I4
tp1132
ag846
a(I3
I2082
I37
I32
tp1133
tp1134
sS'7282848693f435354556392'
p1135
((lp1136
(I8
I4
tp1137
a(I8
I3
tp1138
a(I3
I38297
I1407
I45
tp1139
tp1140
sS'4174849395f77'
p1141
((lp1142
g1109
a(I6
I3
tp1143
a(I3
I4522
I83
I41
tp1144
tp1145
sS'828384939495f333442455354'
p1146
((lp1147
g967
a(I7
I3
tp1148
a(I3
I14771
I347
I55
tp1149
tp1150
sS'828384939495f424452535455'
p1151
((lp1152
g899
a(I7
I3
tp1153
a(I3
I18052
I346
I53
tp1154
tp1155
sS'56638394f47'
p1156
((lp1157
g1025
a(I4
I5
tp1158
a(I3
I1740
I28
I30
tp1159
tp1160
sS'466373829394f5387'
p1161
((lp1162
g1012
a(I6
I4
tp1163
a(I6
I2
tp1164
a(I4
I4
tp1165
a(I3
I6853
I55
I58
tp1166
tp1167
sS'267382839394f243334'
p1168
((lp1169
g1045
ag961
a(I3
I25605
I806
I45
tp1170
tp1171
sS'56738394f37'
p1172
((lp1173
g911
a(I6
I3
tp1174
a(I3
I1859
I10
I30
tp1175
tp1176
sS'738283849394f425253545564'
p1177
((lp1178
(I8
I3
tp1179
a(I6
I3
tp1180
a(I4
I1
tp1181
a(I4
I3
tp1182
a(I6
I5
tp1183
a(I4
I5
tp1184
a(I3
I6853
I156
I51
tp1185
tp1186
sS'738283849394f435253545566'
p1187
((lp1188
(I8
I4
tp1189
a(I6
I2
tp1190
a(I4
I2
tp1191
a(I4
I4
tp1192
a(I6
I4
tp1193
ag1006
a(I3
I22095
I561
I60
tp1194
tp1195
sS'267383849394f23333442'
p1196
((lp1197
(I2
I6
tp1198
ag887
a(I3
I10190
I208
I46
tp1199
tp1200
sS'2630355482fc4'
p1201
((lp1202
(I5
I4
tp1203
a(I4
I3
tp1204
a(I2
I4747
I101
I33
tp1205
tp1206
sS'2673849394f43'
p1207
((lp1208
g956
ag1070
a(I3
I3152
I47
I30
tp1209
tp1210
sS'3541828494f87'
p1211
((lp1212
(I9
I4
tp1213
a(I7
I4
tp1214
a(I3
I4346
I41
I38
tp1215
tp1216
sS'738283849394f424452535455'
p1217
((lp1218
(I8
I3
tp1219
a(I6
I3
tp1220
a(I4
I1
tp1221
a(I4
I3
tp1222
a(I4
I5
tp1223
a(I3
I7192
I148
I53
tp1224
tp1225
sS'457382849394f6475'
p1226
((lp1227
g1189
a(I6
I6
tp1228
a(I3
I800
I34
I1
tp1229
tp1230
sS'838492939495f334244455354'
p1231
((lp1232
g1119
a(I8
I2
tp1233
a(I3
I30563
I1181
I54
tp1234
tp1235
sS'7383849294f26535463'
p1236
((lp1237
(I8
I4
tp1238
a(I6
I2
tp1239
a(I4
I4
tp1240
a(I6
I4
tp1241
a(I3
I15489
I389
I51
tp1242
tp1243
sS'354446639394fa7'
p1244
((lp1245
(I9
I3
tp1246
a(I8
I3
tp1247
a(I3
I5475
I49
I47
tp1248
tp1249
sS'357483849394f4263'
p1250
((lp1251
g110
a(I7
I3
tp1252
a(I5
I3
tp1253
a(I3
I1
tp1254
a(I1
I26
I0
I0
tp1255
tp1256
sS'738283849394f333435424554'
p1257
((lp1258
g1233
a(I6
I4
tp1259
a(I4
I4
tp1260
ag1198
a(I3
I26260
I667
I52
tp1261
tp1262
sS'3541647482fa6'
p1263
((lp1264
g1214
ag1203
a(I3
I5304
I84
I32
tp1265
tp1266
sss.