(dp0
I1
(dp1
S'north'
p2
(dp3
sS'south'
p4
(dp5
ssI2
(dp6
g2
(dp7
sg4
(dp8
S'358384929495f4253'
p9
((lp10
(I3
I5
tp11
a(I2
I4
tp12
a(I2
I511
I0
I52
tp13
tp14
sS'838492939495f424344455464'
p15
((lp16
(I9
I3
tp17
a(I7
I5
tp18
a(I5
I3
tp19
a(I3
I3
tp20
a(I5
I5
tp21
ag11
a(I2
I1271
I0
I67
tp22
tp23
sS'248384929495f4263'
p24
((lp25
(I9
I2
tp26
a(I7
I4
tp27
a(I5
I2
tp28
a(I3
I2
tp29
a(I1
I28
I0
I0
tp30
tp31
sssI3
(dp32
g2
(dp33
sg4
(dp34
S'3383849294f26'
p35
((lp36
(I9
I2
tp37
a(I7
I4
tp38
a(I3
I2980
I14
I37
tp39
tp40
sS'328384939495f44535465'
p41
((lp42
(I9
I3
tp43
a(I7
I5
tp44
a(I5
I5
tp45
a(I3
I3
tp46
a(I3
I8387
I139
I59
tp47
tp48
sS'838492939495f424344535463'
p49
((lp50
(I9
I2
tp51
a(I7
I4
tp52
a(I5
I2
tp53
a(I3
I2
tp54
a(I3
I60900
I1501
I57
tp55
tp56
sS'323383849495f5364'
p57
((lp58
(I9
I4
tp59
a(I7
I4
tp60
a(I5
I4
tp61
a(I5
I2
tp62
a(I1
I5
I0
I0
tp63
tp64
sS'3354638384f56'
p65
((lp66
(I6
I3
tp67
a(I4
I5
tp68
a(I6
I7
tp69
a(I1
I29
I0
I0
tp70
tp71
sS'838492939495f434445535464'
p72
((lp73
(I9
I5
tp74
a(I7
I3
tp75
a(I5
I5
tp76
a(I3
I5
tp77
a(I3
I63154
I1537
I56
tp78
tp79
sS'3363838494f46'
p80
((lp81
(I9
I4
tp82
a(I7
I2
tp83
a(I5
I4
tp84
a(I3
I5101
I63
I40
tp85
tp86
sS'8384929394f15435464'
p87
((lp88
g43
a(I7
I3
tp89
a(I5
I5
tp90
a(I5
I3
tp91
a(I3
I3
tp92
a(I3
I33479
I677
I49
tp93
tp94
sS'3374838494f36'
p95
((lp96
g38
ag67
a(I3
I3750
I37
I34
tp97
tp98
sS'358384929394f43535464'
p99
((lp100
g77
a(I2
I4
tp101
a(I3
I39635
I968
I53
tp102
tp103
sss.