(dp0
I1
(dp1
S'north'
p2
(dp3
S'3373b3f5685'
p4
((lp5
(I8
I5
tp6
a(I9
I4
tp7
a(I1
I17
I0
I0
tp8
tp9
sS'7384b3f535667'
p10
((lp11
(I6
I7
tp12
a(I7
I6
tp13
a(I1
I21
I0
I0
tp14
tp15
sS'8384b3f455356'
p16
((lp17
(I4
I5
tp18
ag12
a(I1
I25
I0
I0
tp19
tp20
sS'2373b3f5694'
p21
((lp22
g7
a(I10
I5
tp23
a(I1
I17
I0
I0
tp24
tp25
sS'4473b3f5676'
p26
((lp27
g13
ag6
a(I1
I17
I0
I0
tp28
tp29
sS'7483849394f43455356'
p30
((lp31
(I4
I3
tp32
a(I6
I3
tp33
a(I8
I5
tp34
a(I10
I3
tp35
a(I1
I38
I0
I0
tp36
tp37
sS'0373b3f56b5'
p38
((lp39
(ta(I0
I1
I0
I0
tp40
tp41
sS'838492939495f424344455354'
p42
((lp43
(I4
I2
tp44
a(I6
I4
tp45
a(I1
I59
I0
I0
tp46
tp47
sS'0473b3f56b5'
p48
((lp49
(ta(I0
I1
I0
I0
tp50
tp51
sS'338384929394f43455354'
p52
((lp53
(I5
I4
tp54
a(I3
I2
tp55
a(I3
I4
tp56
a(I5
I6
tp57
a(I1
I38
I0
I0
tp58
tp59
sS'1373b3f56a5'
p60
((lp61
g23
a(I11
I5
tp62
a(I1
I17
I0
I0
tp63
tp64
ssS'south'
p65
(dp66
S'4473b3f5685'
p67
((lp68
(I4
I4
tp69
a(I3
I3
tp70
a(I1
I25
I0
I0
tp71
tp72
sS'3373b3f5694'
p73
((lp74
g70
a(I2
I3
tp75
a(I1
I25
I0
I0
tp76
tp77
sS'7384b3f535676'
p78
((lp79
(I8
I4
tp80
a(I6
I2
tp81
ag69
a(I1
I26
I0
I0
tp82
tp83
sS'8384929394f43455356'
p84
((lp85
(I9
I2
tp86
a(I7
I4
tp87
a(I1
I50
I0
I0
tp88
tp89
sS'1373b3f56b5'
p90
((lp91
(I1
I3
tp92
a(I0
I3
tp93
a(I1
I18
I0
I0
tp94
tp95
sS'838493f455356a3'
p96
((lp97
(I9
I3
tp98
a(I11
I3
tp99
a(I1
I28
I0
I0
tp100
tp101
sS'8384b3f535667'
p102
((lp103
(I8
I3
tp104
a(I7
I3
tp105
a(I1
I25
I0
I0
tp106
tp107
sS'838492939495f434445535464'
p108
((lp109
(I9
I5
tp110
a(I7
I3
tp111
a(I5
I5
tp112
a(I3
I3
tp113
a(I1
I65
I0
I0
tp114
tp115
sS'0373b3f56b5'
p116
((lp117
g93
a(I0
I4
tp118
a(I1
I18
I0
I0
tp119
tp120
sS'2373b3f56a5'
p121
((lp122
g75
ag92
a(I1
I25
I0
I0
tp123
tp124
sS'838492939495f424344455354'
p125
((lp126
(I9
I2
tp127
a(I7
I4
tp128
a(I1
I59
I0
I0
tp129
tp130
sS'0473b3f56b5'
p131
((lp132
g118
a(I0
I3
tp133
a(I1
I18
I0
I0
tp134
tp135
sssI2
(dp136
g2
(dp137
sg65
(dp138
S'838492939495f424445535465'
p139
((lp140
(I9
I3
tp141
a(I7
I5
tp142
a(I5
I5
tp143
a(I3
I3
tp144
a(I5
I1
tp145
a(I2
I1145
I0
I60
tp146
tp147
sS'358384929394f4244'
p148
((lp149
(I3
I5
tp150
a(I5
I3
tp151
a(I3
I1
tp152
a(I1
I57
I0
I0
tp153
tp154
sS'1525647483fa0'
p155
((lp156
(I1
I5
tp157
a(I0
I4
tp158
a(I1
I34
I0
I0
tp159
tp160
sS'748283848593f424445525354'
p161
((lp162
(I8
I3
tp163
a(I6
I5
tp164
a(I4
I3
tp165
a(I4
I1
tp166
a(I2
I435
I0
I59
tp167
tp168
sS'7482838493f4043455354'
p169
((lp170
(I8
I4
tp171
a(I6
I4
tp172
a(I4
I2
tp173
a(I4
I4
tp174
a(I4
I6
tp175
a(I2
I498
I0
I45
tp176
tp177
sS'358384929394f4264'
p178
((lp179
(I9
I3
tp180
a(I7
I5
tp181
a(I5
I3
tp182
a(I3
I1
tp183
a(I1
I41
I0
I0
tp184
tp185
sS'73748284f304345'
p186
((lp187
(I8
I2
tp188
a(I6
I4
tp189
a(I2
I164
I0
I32
tp190
tp191
sS'738283848594f424344455355'
p192
((lp193
(I9
I4
tp194
a(I7
I2
tp195
a(I7
I4
tp196
a(I2
I1137
I0
I53
tp197
tp198
sS'2564748393f4470'
p199
((lp200
(I9
I3
tp201
a(I7
I3
tp202
a(I7
I5
tp203
a(I5
I3
tp204
a(I3
I5
tp205
a(I1
I5
tp206
a(I2
I193
I0
I43
tp207
tp208
sS'748283848593f434445525354'
p209
((lp210
(I8
I5
tp211
a(I6
I3
tp212
a(I4
I1
tp213
a(I2
I1334
I0
I54
tp214
tp215
sS'505183849295f4553'
p216
((lp217
(I5
I0
tp218
a(I5
I2
tp219
a(I5
I4
tp220
a(I3
I6
tp221
a(I1
I51
I0
I0
tp222
tp223
sS'828384939495f424344455354'
p224
((lp225
(I9
I5
tp226
a(I7
I3
tp227
a(I2
I1001
I0
I52
tp228
tp229
sS'838492939495f424344455463'
p230
((lp231
(I9
I5
tp232
a(I7
I3
tp233
a(I5
I3
tp234
a(I3
I3
tp235
a(I5
I5
tp236
ag150
a(I2
I997
I0
I70
tp237
tp238
sS'738283848593f424344455354'
p239
((lp240
(I9
I3
tp241
ag194
a(I2
I1096
I0
I39
tp242
tp243
sS'518384929495f455462'
p244
((lp245
(I9
I4
tp246
a(I7
I2
tp247
a(I5
I2
tp248
ag218
a(I2
I677
I0
I60
tp249
tp250
sS'64737484f303445'
p251
((lp252
(I7
I3
tp253
a(I5
I5
tp254
a(I3
I5
tp255
a(I3
I3
tp256
a(I2
I133
I0
I32
tp257
tp258
sS'247483849394f4244'
p259
((lp260
(I2
I4
tp261
a(I1
I3
tp262
a(I2
I277
I0
I51
tp263
tp264
sS'828384939495f444552535463'
p265
((lp266
(I8
I2
tp267
a(I9
I2
tp268
a(I2
I1617
I0
I52
tp269
tp270
sS'13335484f71'
p271
((lp272
(I1
I3
tp273
a(I0
I3
tp274
a(I1
I26
I0
I0
tp275
tp276
sS'33647484f41'
p277
((lp278
g196
a(I5
I4
tp279
a(I2
I109
I0
I28
tp280
tp281
sS'738283848594f434445525354'
p282
((lp283
g194
a(I7
I2
tp284
a(I7
I4
tp285
a(I2
I1391
I0
I56
tp286
tp287
sS'738283849394f344244535456'
p288
((lp289
(I8
I3
tp290
a(I6
I3
tp291
a(I4
I3
tp292
a(I4
I5
tp293
a(I2
I3
tp294
a(I2
I280
I0
I56
tp295
tp296
sS'2574828393f4460'
p297
((lp298
g267
a(I8
I4
tp299
a(I6
I4
tp300
a(I2
I223
I0
I41
tp301
tp302
sS'7482848593f30444553'
p303
((lp304
(I8
I5
tp305
a(I6
I3
tp306
a(I4
I3
tp307
a(I2
I318
I0
I48
tp308
tp309
sS'838492939495f444552536372'
p310
((lp311
(I8
I4
tp312
a(I8
I2
tp313
a(I6
I2
tp314
a(I4
I2
tp315
a(I6
I4
tp316
a(I2
I976
I0
I62
tp317
tp318
sS'8392939495f444565'
p319
((lp320
g268
a(I7
I4
tp321
a(I5
I6
tp322
a(I3
I4
tp323
a(I5
I4
tp324
a(I1
I40
I0
I0
tp325
tp326
sS'737482838485f424344455354'
p327
((lp328
g227
a(I7
I5
tp329
ag201
a(I2
I1498
I0
I52
tp330
tp331
sS'234051576694f43'
p332
((lp333
g294
a(I1
I3
tp334
a(I2
I160
I0
I37
tp335
tp336
sS'248384929394f4245'
p337
((lp338
(I9
I2
tp339
a(I7
I4
tp340
a(I2
I242
I0
I54
tp341
tp342
sS'738283849394f424344455355'
p343
((lp344
(I9
I4
tp345
ag305
a(I2
I1367
I0
I49
tp346
tp347
sS'2535647483f90'
p348
((lp349
(I3
I5
tp350
ag157
a(I2
I152
I0
I35
tp351
tp352
sS'235762667394f45'
p353
((lp354
(I7
I3
tp355
a(I5
I1
tp356
a(I2
I240
I0
I43
tp357
tp358
sS'22335484f61'
p359
((lp360
(I2
I2
tp361
ag273
a(I2
I154
I0
I26
tp362
tp363
sS'2564747583f4480'
p364
((lp365
g203
a(I5
I3
tp366
ag350
a(I1
I5
tp367
a(I2
I182
I0
I42
tp368
tp369
sS'828384939495f344244535455'
p370
((lp371
(I9
I5
tp372
ag355
a(I2
I850
I0
I54
tp373
tp374
sS'838492939495f434445525354'
p375
((lp376
(I9
I2
tp377
ag267
a(I2
I1071
I0
I53
tp378
tp379
sS'3674828393f4450'
p380
((lp381
(I3
I6
tp382
a(I2
I5
tp383
a(I2
I205
I0
I39
tp384
tp385
sS'137483849394f4245'
p386
((lp387
g262
a(I0
I3
tp388
a(I1
I51
I0
I0
tp389
tp390
sS'74828493f304245'
p391
((lp392
g201
a(I7
I5
tp393
ag253
a(I2
I206
I0
I31
tp394
tp395
sS'358384929394f4255'
p396
((lp397
g150
ag261
a(I2
I321
I0
I53
tp398
tp399
sS'237382849394f425455'
p400
((lp401
(I8
I2
tp402
a(I6
I4
tp403
a(I4
I4
tp404
a(I6
I6
tp405
a(I2
I368
I0
I51
tp406
tp407
sS'235157626694f44'
p408
((lp409
(I6
I2
tp410
a(I4
I0
tp411
a(I2
I178
I0
I40
tp412
tp413
sS'134051576694f44'
p414
((lp415
g334
a(I0
I3
tp416
a(I1
I34
I0
I0
tp417
tp418
sS'4674828393f4044'
p419
((lp420
g175
ag382
a(I2
I287
I0
I40
tp421
tp422
sS'748283848593f424344455355'
p423
((lp424
g201
a(I7
I3
tp425
a(I2
I1164
I0
I51
tp426
tp427
sS'838492939495f424344455355'
p428
((lp429
g339
a(I8
I2
tp430
a(I2
I848
I0
I53
tp431
tp432
sS'33546484f51'
p433
((lp434
g189
a(I4
I4
tp435
ag361
a(I2
I114
I0
I30
tp436
tp437
sS'838492939495f344244455354'
p438
((lp439
(I9
I2
tp440
ag402
a(I2
I1041
I0
I53
tp441
tp442
sS'235766738494f44'
p443
((lp444
(I8
I4
tp445
ag410
a(I2
I201
I0
I47
tp446
tp447
sS'236673849394f43'
p448
((lp449
g141
a(I7
I5
tp450
a(I5
I7
tp451
a(I2
I153
I0
I48
tp452
tp453
sS'738283849394f434445525354'
p454
((lp455
(I9
I4
tp456
ag211
a(I2
I1359
I0
I50
tp457
tp458
sssI3
(dp459
g2
(dp460
S'558283849294f5253546377'
p461
((lp462
(I5
I3
tp463
a(I7
I3
tp464
a(I9
I1
tp465
a(I9
I3
tp466
a(I9
I5
tp467
a(I3
I16984
I452
I37
tp468
tp469
sS'8284a5f7077'
p470
((lp471
(I7
I7
tp472
a(I8
I6
tp473
a(I3
I782
I82
I7
tp474
tp475
sS'828492939495f434445525354'
p476
((lp477
(I4
I5
tp478
a(I6
I3
tp479
a(I3
I18909
I370
I53
tp480
tp481
sS'828384929394f445253546365'
p482
((lp483
(I6
I5
tp484
a(I6
I6
tp485
a(I3
I42216
I827
I56
tp486
tp487
sS'8294a4f7096'
p488
((lp489
(I9
I6
tp490
a(I10
I6
tp491
a(I3
I1236
I123
I9
tp492
tp493
sS'828494f7086'
p494
((lp495
g473
ag490
a(I3
I1303
I138
I9
tp496
tp497
sS'7384a5f6177'
p498
((lp499
(I6
I1
tp500
a(I7
I0
tp501
a(I3
I1569
I208
I6
tp502
tp503
sS'82a4b5f70b6'
p504
((lp505
(I11
I6
tp506
a(I12
I5
tp507
a(I3
I1191
I110
I7
tp508
tp509
sS'838492939495f424344455354'
p510
((lp511
(I4
I2
tp512
a(I5
I2
tp513
a(I3
I24013
I539
I52
tp514
tp515
sS'828392939495f434452535463'
p516
((lp517
(I4
I3
tp518
ag484
a(I3
I59439
I1472
I48
tp519
tp520
sS'738384f527795'
p521
((lp522
(I5
I2
tp523
ag500
a(I3
I2473
I196
I16
tp524
tp525
sS'828384929394f525354636466'
p526
((lp527
g485
ag472
a(I3
I49588
I1083
I59
tp528
tp529
sS'8283929394a4f445253546366'
p530
((lp531
(I4
I4
tp532
a(I6
I2
tp533
a(I6
I4
tp534
a(I3
I77549
I1895
I52
tp535
tp536
sS'82b4f70c5'
p537
((lp538
g507
a(I13
I4
tp539
a(I1
I11
I0
I0
tp540
tp541
sS'82a4b4f70a6'
p542
((lp543
g491
ag506
a(I3
I1177
I106
I8
tp544
tp545
ssg65
(dp546
S'838492939495f424445525354'
p547
((lp548
(I9
I2
tp549
a(I8
I2
tp550
a(I3
I38405
I1448
I53
tp551
tp552
sS'36456383f67'
p553
((lp554
(I3
I6
tp555
a(I2
I5
tp556
a(I3
I2688
I42
I27
tp557
tp558
sS'444663739394f97'
p559
((lp560
(I7
I3
tp561
a(I5
I3
tp562
a(I3
I5
tp563
a(I3
I6614
I81
I50
tp564
tp565
sS'828384939495f333442455354'
p566
((lp567
(I9
I5
tp568
a(I7
I3
tp569
a(I3
I14771
I347
I55
tp570
tp571
sS'267383849394f23333442'
p572
((lp573
(I2
I6
tp574
a(I1
I5
tp575
a(I3
I10190
I208
I46
tp576
tp577
sS'358384929394f4264'
p578
((lp579
(I9
I3
tp580
a(I7
I5
tp581
a(I5
I3
tp582
a(I3
I1
tp583
a(I1
I49
I0
I0
tp584
tp585
sS'8283849394f455254636477'
p586
((lp587
(I9
I3
tp588
a(I7
I3
tp589
a(I5
I3
tp590
a(I5
I5
tp591
a(I3
I5
tp592
a(I3
I42103
I934
I61
tp593
tp594
sS'828384869394f455253546364'
p595
((lp596
(I8
I6
tp597
a(I7
I6
tp598
a(I3
I65608
I1971
I60
tp599
tp600
sS'243544638394fc5'
p601
((lp602
g563
a(I1
I3
tp603
a(I2
I10343
I121
I55
tp604
tp605
sS'4163849395f87'
p606
((lp607
(I4
I1
tp608
a(I4
I2
tp609
a(I3
I3544
I59
I38
tp610
tp611
sS'828384939495f434452535455'
p612
((lp613
(I9
I5
tp614
ag561
a(I3
I26804
I869
I51
tp615
tp616
sS'456673829394f74'
p617
((lp618
g550
a(I6
I4
tp619
a(I8
I4
tp620
a(I1
I5
I0
I0
tp621
tp622
sS'8384929394f26435354'
p623
((lp624
(I9
I3
tp625
a(I7
I3
tp626
a(I3
I8810
I162
I47
tp627
tp628
sS'838492939495f424344455463'
p629
((lp630
(I9
I5
tp631
a(I7
I3
tp632
a(I5
I3
tp633
a(I3
I3
tp634
a(I5
I5
tp635
a(I3
I5
tp636
a(I3
I61731
I1279
I68
tp637
tp638
sS'2635415482fc5'
p639
((lp640
(I4
I1
tp641
a(I3
I0
tp642
a(I2
I4855
I76
I37
tp643
tp644
sS'838492939495f424345535462'
p645
((lp646
(I9
I4
tp647
a(I7
I2
tp648
a(I5
I2
tp649
a(I3
I4
tp650
a(I5
I6
tp651
a(I3
I71409
I1927
I59
tp652
tp653
sS'3582838494f527477'
p654
((lp655
(I8
I3
tp656
a(I8
I5
tp657
a(I6
I3
tp658
ag641
a(I3
I5504
I75
I37
tp659
tp660
sS'7382849394f365355'
p661
((lp662
g550
a(I6
I4
tp663
a(I4
I6
tp664
a(I2
I6
tp665
a(I3
I14143
I250
I44
tp666
tp667
sS'157382839394f142433'
p668
((lp669
(I1
I5
tp670
a(I0
I4
tp671
a(I1
I50
I0
I0
tp672
tp673
sS'828384939495f444552535463'
p674
((lp675
g568
ag597
a(I3
I34758
I870
I54
tp676
tp677
sS'2673849394f43'
p678
((lp679
g665
a(I1
I5
tp680
a(I3
I3152
I47
I30
tp681
tp682
sS'357483849394f4254'
p683
((lp684
(I8
I3
tp685
a(I6
I5
tp686
a(I4
I3
tp687
a(I4
I1
tp688
a(I1
I18
I0
I0
tp689
tp690
sS'467382839394f5377'
p691
((lp692
(I8
I3
tp693
a(I6
I3
tp694
a(I3
I12152
I90
I56
tp695
tp696
sS'354446638394fb6'
p697
((lp698
(I4
I6
tp699
a(I2
I4
tp700
a(I3
I6635
I106
I52
tp701
tp702
sS'838492939495f424344535455'
p703
((lp704
g549
a(I8
I2
tp705
a(I3
I32653
I1100
I54
tp706
tp707
sS'73839294f2665'
p708
((lp709
(I9
I2
tp710
a(I7
I4
tp711
a(I5
I6
tp712
a(I3
I3443
I41
I34
tp713
tp714
sS'358384929394f4253'
p715
((lp716
g549
a(I7
I4
tp717
a(I3
I7406
I77
I54
tp718
tp719
sS'14456383f87'
p720
((lp721
(I1
I4
tp722
a(I0
I3
tp723
a(I1
I26
I0
I0
tp724
tp725
sS'738283849394f333436424553'
p726
((lp727
(I8
I4
tp728
a(I6
I2
tp729
a(I4
I4
tp730
a(I4
I6
tp731
a(I2
I6
tp732
a(I3
I13486
I286
I56
tp733
tp734
sS'4263849395f97'
p735
((lp736
(I9
I5
tp737
a(I7
I3
tp738
a(I5
I3
tp739
a(I3
I1
tp740
a(I3
I4042
I71
I36
tp741
tp742
sS'457382849394f6475'
p743
((lp744
(I8
I4
tp745
a(I6
I6
tp746
a(I3
I800
I34
I1
tp747
tp748
sS'3541546482fb6'
p749
((lp750
(I6
I4
tp751
a(I4
I4
tp752
a(I2
I6
tp753
a(I3
I5173
I54
I35
tp754
tp755
sS'1573849394f33'
p756
((lp757
g680
a(I0
I4
tp758
a(I1
I37
I0
I0
tp759
tp760
sS'838492939495f434445535464'
p761
((lp762
(I9
I5
tp763
a(I7
I3
tp764
a(I5
I5
tp765
a(I3
I5
tp766
a(I3
I63154
I1537
I56
tp767
tp768
sS'2242638494fc4'
p769
((lp770
(I8
I4
tp771
a(I7
I3
tp772
a(I2
I6876
I133
I42
tp773
tp774
sS'25456383f77'
p775
((lp776
g556
ag722
a(I3
I1457
I17
I20
tp777
tp778
sS'2242637394fb4'
p779
((lp780
(I6
I3
tp781
a(I8
I3
tp782
a(I10
I5
tp783
a(I12
I3
tp784
a(I1
I10
I0
I0
tp785
tp786
sS'828384939495f424552535455'
p787
((lp788
(I9
I5
tp789
a(I7
I3
tp790
a(I3
I27999
I920
I51
tp791
tp792
sS'8384929395f425457'
p793
((lp794
(I9
I2
tp795
a(I7
I4
tp796
a(I3
I5666
I72
I48
tp797
tp798
sS'3541748284f97'
p799
((lp800
(I8
I4
tp801
ag751
a(I3
I4180
I36
I38
tp802
tp803
sS'838492939495f434445525354'
p804
((lp805
(I9
I2
tp806
a(I8
I2
tp807
a(I3
I34787
I1202
I53
tp808
tp809
sS'45638394f57'
p810
((lp811
(I9
I4
tp812
a(I7
I2
tp813
a(I5
I4
tp814
ag555
a(I3
I2082
I37
I32
tp815
tp816
sS'4174849395f77'
p817
((lp818
g796
a(I6
I3
tp819
a(I3
I4522
I83
I41
tp820
tp821
sS'3142638494fb5'
p822
((lp823
g740
a(I2
I2
tp824
a(I3
I5471
I117
I39
tp825
tp826
sS'828384939495f424452535455'
p827
((lp828
g614
a(I7
I3
tp829
a(I3
I18052
I346
I53
tp830
tp831
sS'56638394f47'
p832
((lp833
g712
a(I4
I5
tp834
a(I3
I1740
I28
I30
tp835
tp836
sS'466373829394f5387'
p837
((lp838
g705
a(I6
I4
tp839
a(I6
I2
tp840
a(I4
I4
tp841
a(I3
I6853
I55
I58
tp842
tp843
sS'267382839394f243334'
p844
((lp845
g732
ag670
a(I3
I25605
I806
I45
tp846
tp847
sS'56738394f37'
p848
((lp849
g626
a(I6
I3
tp850
a(I3
I1859
I10
I30
tp851
tp852
sS'738283849394f425253545564'
p853
((lp854
(I8
I3
tp855
a(I6
I3
tp856
a(I4
I1
tp857
a(I4
I3
tp858
a(I6
I5
tp859
a(I4
I5
tp860
a(I3
I6853
I156
I51
tp861
tp862
sS'738283849394f435253545566'
p863
((lp864
g745
a(I6
I2
tp865
a(I4
I2
tp866
a(I4
I4
tp867
a(I6
I4
tp868
ag699
a(I3
I22095
I561
I60
tp869
tp870
sS'157383849394f13233442'
p871
((lp872
g575
a(I0
I4
tp873
a(I1
I51
I0
I0
tp874
tp875
sS'2630355482fc4'
p876
((lp877
(I5
I4
tp878
a(I4
I3
tp879
a(I2
I4747
I101
I33
tp880
tp881
sS'7483849395f425467'
p882
((lp883
(I8
I3
tp884
a(I6
I5
tp885
a(I4
I3
tp886
ag608
a(I3
I10912
I131
I52
tp887
tp888
sS'3541828494f87'
p889
((lp890
(I9
I4
tp891
a(I7
I4
tp892
a(I3
I4346
I41
I38
tp893
tp894
sS'738283849394f424452535455'
p895
((lp896
(I8
I3
tp897
a(I6
I3
tp898
a(I4
I1
tp899
a(I4
I3
tp900
a(I4
I5
tp901
a(I3
I7192
I148
I53
tp902
tp903
sS'3142638493fa6'
p904
((lp905
(I9
I3
tp906
a(I9
I4
tp907
a(I3
I4401
I78
I36
tp908
tp909
sS'838492939495f334244455354'
p910
((lp911
g806
a(I8
I2
tp912
a(I3
I30563
I1181
I54
tp913
tp914
sS'7383849294f26535463'
p915
((lp916
(I8
I4
tp917
a(I6
I2
tp918
a(I4
I4
tp919
a(I6
I4
tp920
a(I3
I15489
I389
I51
tp921
tp922
sS'354446639394fa7'
p923
((lp924
(I9
I3
tp925
a(I8
I3
tp926
a(I3
I5475
I49
I47
tp927
tp928
sS'738283849394f333435424554'
p929
((lp930
g912
a(I6
I4
tp931
a(I4
I4
tp932
ag574
a(I3
I26260
I667
I52
tp933
tp934
sS'3541647482fa6'
p935
((lp936
g892
ag878
a(I3
I5304
I84
I32
tp937
tp938
sss.