(dp0
I1
(dp1
S'north'
p2
(dp3
S'8384b3f455356'
p4
((lp5
(I4
I5
tp6
a(I6
I7
tp7
a(I1
I25
I0
I0
tp8
tp9
sS'838492939495f424344455354'
p10
((lp11
(I4
I2
tp12
a(I6
I4
tp13
a(I1
I59
I0
I0
tp14
tp15
sS'7483849394f43455356'
p16
((lp17
(I4
I3
tp18
a(I6
I3
tp19
a(I8
I5
tp20
a(I10
I3
tp21
a(I1
I38
I0
I0
tp22
tp23
sS'7384b3f535667'
p24
((lp25
g7
a(I7
I6
tp26
a(I1
I21
I0
I0
tp27
tp28
sS'338384929394f43455354'
p29
((lp30
(I5
I4
tp31
a(I3
I2
tp32
a(I3
I4
tp33
a(I5
I6
tp34
a(I1
I38
I0
I0
tp35
tp36
ssS'south'
p37
(dp38
S'7384b3f535676'
p39
((lp40
(I8
I4
tp41
a(I6
I2
tp42
a(I4
I4
tp43
a(I1
I26
I0
I0
tp44
tp45
sS'8384929394f43455356'
p46
((lp47
(I9
I2
tp48
a(I7
I4
tp49
a(I1
I50
I0
I0
tp50
tp51
sS'838493f455356a3'
p52
((lp53
(I9
I3
tp54
a(I11
I3
tp55
a(I1
I28
I0
I0
tp56
tp57
sS'8384b3f535667'
p58
((lp59
(I8
I3
tp60
a(I7
I3
tp61
a(I1
I25
I0
I0
tp62
tp63
sS'838492939495f434445535464'
p64
((lp65
(I9
I5
tp66
a(I7
I3
tp67
a(I5
I5
tp68
a(I3
I3
tp69
a(I1
I65
I0
I0
tp70
tp71
sS'838492939495f424344455354'
p72
((lp73
(I9
I2
tp74
a(I7
I4
tp75
a(I1
I59
I0
I0
tp76
tp77
sssI2
(dp78
g2
(dp79
sg37
(dp80
S'838492939495f424445535465'
p81
((lp82
(I9
I3
tp83
a(I7
I5
tp84
a(I5
I5
tp85
a(I3
I3
tp86
a(I5
I1
tp87
a(I2
I1145
I0
I60
tp88
tp89
sS'358384929394f4244'
p90
((lp91
(I3
I5
tp92
a(I5
I3
tp93
a(I3
I1
tp94
a(I1
I57
I0
I0
tp95
tp96
sS'1525647483fa0'
p97
((lp98
(I1
I5
tp99
a(I0
I4
tp100
a(I1
I34
I0
I0
tp101
tp102
sS'748283848593f424445525354'
p103
((lp104
(I8
I3
tp105
a(I6
I5
tp106
a(I4
I3
tp107
a(I4
I1
tp108
a(I2
I435
I0
I59
tp109
tp110
sS'7482838493f4043455354'
p111
((lp112
(I8
I4
tp113
a(I6
I4
tp114
a(I4
I2
tp115
a(I4
I4
tp116
a(I4
I6
tp117
a(I2
I498
I0
I45
tp118
tp119
sS'358384929394f4264'
p120
((lp121
(I9
I3
tp122
a(I7
I5
tp123
a(I5
I3
tp124
a(I3
I1
tp125
a(I1
I41
I0
I0
tp126
tp127
sS'73748284f304345'
p128
((lp129
(I8
I2
tp130
a(I6
I4
tp131
a(I2
I164
I0
I32
tp132
tp133
sS'738283848594f424344455355'
p134
((lp135
(I9
I4
tp136
a(I7
I2
tp137
a(I7
I4
tp138
a(I2
I1137
I0
I53
tp139
tp140
sS'2564748393f4470'
p141
((lp142
(I9
I3
tp143
a(I7
I3
tp144
a(I7
I5
tp145
a(I5
I3
tp146
a(I3
I5
tp147
a(I1
I5
tp148
a(I2
I193
I0
I43
tp149
tp150
sS'748283848593f434445525354'
p151
((lp152
(I8
I5
tp153
a(I6
I3
tp154
a(I4
I1
tp155
a(I2
I1334
I0
I54
tp156
tp157
sS'505183849295f4553'
p158
((lp159
(I5
I0
tp160
a(I5
I2
tp161
a(I5
I4
tp162
a(I3
I6
tp163
a(I1
I51
I0
I0
tp164
tp165
sS'828384939495f424344455354'
p166
((lp167
(I9
I5
tp168
a(I7
I3
tp169
a(I2
I1001
I0
I52
tp170
tp171
sS'838492939495f424344455463'
p172
((lp173
(I9
I5
tp174
a(I7
I3
tp175
a(I5
I3
tp176
a(I3
I3
tp177
a(I5
I5
tp178
ag92
a(I2
I997
I0
I70
tp179
tp180
sS'738283848593f424344455354'
p181
((lp182
(I9
I3
tp183
ag136
a(I2
I1096
I0
I39
tp184
tp185
sS'518384929495f455462'
p186
((lp187
(I9
I4
tp188
a(I7
I2
tp189
a(I5
I2
tp190
ag160
a(I2
I677
I0
I60
tp191
tp192
sS'64737484f303445'
p193
((lp194
(I7
I3
tp195
a(I5
I5
tp196
a(I3
I5
tp197
a(I3
I3
tp198
a(I2
I133
I0
I32
tp199
tp200
sS'247483849394f4244'
p201
((lp202
(I2
I4
tp203
a(I1
I3
tp204
a(I2
I277
I0
I51
tp205
tp206
sS'828384939495f444552535463'
p207
((lp208
(I8
I2
tp209
a(I9
I2
tp210
a(I2
I1617
I0
I52
tp211
tp212
sS'13335484f71'
p213
((lp214
(I1
I3
tp215
a(I0
I3
tp216
a(I1
I26
I0
I0
tp217
tp218
sS'33647484f41'
p219
((lp220
g138
a(I5
I4
tp221
a(I2
I109
I0
I28
tp222
tp223
sS'738283848594f434445525354'
p224
((lp225
g136
a(I7
I2
tp226
a(I7
I4
tp227
a(I2
I1391
I0
I56
tp228
tp229
sS'738283849394f344244535456'
p230
((lp231
(I8
I3
tp232
a(I6
I3
tp233
a(I4
I3
tp234
a(I4
I5
tp235
a(I2
I3
tp236
a(I2
I280
I0
I56
tp237
tp238
sS'2574828393f4460'
p239
((lp240
g209
a(I8
I4
tp241
a(I6
I4
tp242
a(I2
I223
I0
I41
tp243
tp244
sS'7482848593f30444553'
p245
((lp246
(I8
I5
tp247
a(I6
I3
tp248
a(I4
I3
tp249
a(I2
I318
I0
I48
tp250
tp251
sS'838492939495f444552536372'
p252
((lp253
(I8
I4
tp254
a(I8
I2
tp255
a(I6
I2
tp256
a(I4
I2
tp257
a(I6
I4
tp258
a(I2
I976
I0
I62
tp259
tp260
sS'8392939495f444565'
p261
((lp262
g210
a(I7
I4
tp263
a(I5
I6
tp264
a(I3
I4
tp265
a(I5
I4
tp266
a(I1
I40
I0
I0
tp267
tp268
sS'737482838485f424344455354'
p269
((lp270
g169
a(I7
I5
tp271
ag143
a(I2
I1498
I0
I52
tp272
tp273
sS'234051576694f43'
p274
((lp275
g236
a(I1
I3
tp276
a(I2
I160
I0
I37
tp277
tp278
sS'248384929394f4245'
p279
((lp280
(I9
I2
tp281
a(I7
I4
tp282
a(I2
I242
I0
I54
tp283
tp284
sS'738283849394f424344455355'
p285
((lp286
(I9
I4
tp287
ag247
a(I2
I1367
I0
I49
tp288
tp289
sS'2535647483f90'
p290
((lp291
(I3
I5
tp292
ag99
a(I2
I152
I0
I35
tp293
tp294
sS'235762667394f45'
p295
((lp296
(I7
I3
tp297
a(I5
I1
tp298
a(I2
I240
I0
I43
tp299
tp300
sS'22335484f61'
p301
((lp302
(I2
I2
tp303
ag215
a(I2
I154
I0
I26
tp304
tp305
sS'2564747583f4480'
p306
((lp307
g145
a(I5
I3
tp308
ag292
a(I1
I5
tp309
a(I2
I182
I0
I42
tp310
tp311
sS'828384939495f344244535455'
p312
((lp313
(I9
I5
tp314
ag297
a(I2
I850
I0
I54
tp315
tp316
sS'838492939495f434445525354'
p317
((lp318
(I9
I2
tp319
ag209
a(I2
I1071
I0
I53
tp320
tp321
sS'3674828393f4450'
p322
((lp323
(I3
I6
tp324
a(I2
I5
tp325
a(I2
I205
I0
I39
tp326
tp327
sS'137483849394f4245'
p328
((lp329
g204
a(I0
I3
tp330
a(I1
I51
I0
I0
tp331
tp332
sS'74828493f304245'
p333
((lp334
g143
a(I7
I5
tp335
ag195
a(I2
I206
I0
I31
tp336
tp337
sS'358384929394f4255'
p338
((lp339
g92
ag203
a(I2
I321
I0
I53
tp340
tp341
sS'237382849394f425455'
p342
((lp343
(I8
I2
tp344
a(I6
I4
tp345
a(I4
I4
tp346
a(I6
I6
tp347
a(I2
I368
I0
I51
tp348
tp349
sS'235157626694f44'
p350
((lp351
(I6
I2
tp352
a(I4
I0
tp353
a(I2
I178
I0
I40
tp354
tp355
sS'134051576694f44'
p356
((lp357
g276
a(I0
I3
tp358
a(I1
I34
I0
I0
tp359
tp360
sS'4674828393f4044'
p361
((lp362
g117
ag324
a(I2
I287
I0
I40
tp363
tp364
sS'748283848593f424344455355'
p365
((lp366
g143
a(I7
I3
tp367
a(I2
I1164
I0
I51
tp368
tp369
sS'838492939495f424344455355'
p370
((lp371
g281
a(I8
I2
tp372
a(I2
I848
I0
I53
tp373
tp374
sS'33546484f51'
p375
((lp376
g131
a(I4
I4
tp377
ag303
a(I2
I114
I0
I30
tp378
tp379
sS'838492939495f344244455354'
p380
((lp381
(I9
I2
tp382
ag344
a(I2
I1041
I0
I53
tp383
tp384
sS'235766738494f44'
p385
((lp386
(I8
I4
tp387
ag352
a(I2
I201
I0
I47
tp388
tp389
sS'236673849394f43'
p390
((lp391
g83
a(I7
I5
tp392
a(I5
I7
tp393
a(I2
I153
I0
I48
tp394
tp395
sS'738283849394f434445525354'
p396
((lp397
(I9
I4
tp398
ag153
a(I2
I1359
I0
I50
tp399
tp400
sssI3
(dp401
g2
(dp402
S'558283849294f5253546377'
p403
((lp404
(I5
I3
tp405
a(I7
I3
tp406
a(I9
I1
tp407
a(I9
I3
tp408
a(I9
I5
tp409
a(I3
I16984
I452
I37
tp410
tp411
sS'8284a5f7077'
p412
((lp413
(I7
I7
tp414
a(I8
I6
tp415
a(I3
I782
I82
I7
tp416
tp417
sS'828492939495f434445525354'
p418
((lp419
(I4
I5
tp420
a(I6
I3
tp421
a(I3
I18909
I370
I53
tp422
tp423
sS'828384929394f445253546365'
p424
((lp425
(I6
I5
tp426
a(I6
I6
tp427
a(I3
I42216
I827
I56
tp428
tp429
sS'8294a4f7096'
p430
((lp431
(I9
I6
tp432
a(I10
I6
tp433
a(I3
I1236
I123
I9
tp434
tp435
sS'828494f7086'
p436
((lp437
g415
ag432
a(I3
I1303
I138
I9
tp438
tp439
sS'7384a5f6177'
p440
((lp441
(I6
I1
tp442
a(I7
I0
tp443
a(I3
I1569
I208
I6
tp444
tp445
sS'82a4b5f70b6'
p446
((lp447
(I11
I6
tp448
a(I12
I5
tp449
a(I3
I1191
I110
I7
tp450
tp451
sS'838492939495f424344455354'
p452
((lp453
(I4
I2
tp454
a(I5
I2
tp455
a(I3
I24013
I539
I52
tp456
tp457
sS'828392939495f434452535463'
p458
((lp459
(I4
I3
tp460
ag426
a(I3
I59439
I1472
I48
tp461
tp462
sS'738384f527795'
p463
((lp464
(I5
I2
tp465
ag442
a(I3
I2473
I196
I16
tp466
tp467
sS'828384929394f525354636466'
p468
((lp469
g427
ag414
a(I3
I49588
I1083
I59
tp470
tp471
sS'8283929394a4f445253546366'
p472
((lp473
(I4
I4
tp474
a(I6
I2
tp475
a(I6
I4
tp476
a(I3
I77549
I1895
I52
tp477
tp478
sS'82b4f70c5'
p479
((lp480
g449
a(I13
I4
tp481
a(I1
I11
I0
I0
tp482
tp483
sS'82a4b4f70a6'
p484
((lp485
g433
ag448
a(I3
I1177
I106
I8
tp486
tp487
ssg37
(dp488
S'838492939495f424445525354'
p489
((lp490
(I9
I2
tp491
a(I8
I2
tp492
a(I3
I38405
I1448
I53
tp493
tp494
sS'36456383f67'
p495
((lp496
(I3
I6
tp497
a(I2
I5
tp498
a(I3
I2688
I42
I27
tp499
tp500
sS'444663739394f97'
p501
((lp502
(I7
I3
tp503
a(I5
I3
tp504
a(I3
I5
tp505
a(I3
I6614
I81
I50
tp506
tp507
sS'828384939495f333442455354'
p508
((lp509
(I9
I5
tp510
a(I7
I3
tp511
a(I3
I14771
I347
I55
tp512
tp513
sS'267383849394f23333442'
p514
((lp515
(I2
I6
tp516
a(I1
I5
tp517
a(I3
I10190
I208
I46
tp518
tp519
sS'358384929394f4264'
p520
((lp521
(I9
I3
tp522
a(I7
I5
tp523
a(I5
I3
tp524
a(I3
I1
tp525
a(I1
I49
I0
I0
tp526
tp527
sS'8283849394f455254636477'
p528
((lp529
(I9
I3
tp530
a(I7
I3
tp531
a(I5
I3
tp532
a(I5
I5
tp533
a(I3
I5
tp534
a(I3
I42103
I934
I61
tp535
tp536
sS'828384869394f455253546364'
p537
((lp538
(I8
I6
tp539
a(I7
I6
tp540
a(I3
I65608
I1971
I60
tp541
tp542
sS'243544638394fc5'
p543
((lp544
g505
a(I1
I3
tp545
a(I2
I10343
I121
I55
tp546
tp547
sS'4163849395f87'
p548
((lp549
(I4
I1
tp550
a(I4
I2
tp551
a(I3
I3544
I59
I38
tp552
tp553
sS'828384939495f434452535455'
p554
((lp555
(I9
I5
tp556
ag503
a(I3
I26804
I869
I51
tp557
tp558
sS'456673829394f74'
p559
((lp560
g492
a(I6
I4
tp561
a(I8
I4
tp562
a(I1
I5
I0
I0
tp563
tp564
sS'8384929394f26435354'
p565
((lp566
(I9
I3
tp567
a(I7
I3
tp568
a(I3
I8810
I162
I47
tp569
tp570
sS'838492939495f424344455463'
p571
((lp572
(I9
I5
tp573
a(I7
I3
tp574
a(I5
I3
tp575
a(I3
I3
tp576
a(I5
I5
tp577
a(I3
I5
tp578
a(I3
I61731
I1279
I68
tp579
tp580
sS'2635415482fc5'
p581
((lp582
(I4
I1
tp583
a(I3
I0
tp584
a(I2
I4855
I76
I37
tp585
tp586
sS'838492939495f424345535462'
p587
((lp588
(I9
I4
tp589
a(I7
I2
tp590
a(I5
I2
tp591
a(I3
I4
tp592
a(I5
I6
tp593
a(I3
I71409
I1927
I59
tp594
tp595
sS'3582838494f527477'
p596
((lp597
(I8
I3
tp598
a(I8
I5
tp599
a(I6
I3
tp600
ag583
a(I3
I5504
I75
I37
tp601
tp602
sS'7382849394f365355'
p603
((lp604
g492
a(I6
I4
tp605
a(I4
I6
tp606
a(I2
I6
tp607
a(I3
I14143
I250
I44
tp608
tp609
sS'157382839394f142433'
p610
((lp611
(I1
I5
tp612
a(I0
I4
tp613
a(I1
I50
I0
I0
tp614
tp615
sS'828384939495f444552535463'
p616
((lp617
g510
ag539
a(I3
I34758
I870
I54
tp618
tp619
sS'2673849394f43'
p620
((lp621
g607
a(I1
I5
tp622
a(I3
I3152
I47
I30
tp623
tp624
sS'357483849394f4254'
p625
((lp626
(I8
I3
tp627
a(I6
I5
tp628
a(I4
I3
tp629
a(I4
I1
tp630
a(I1
I18
I0
I0
tp631
tp632
sS'467382839394f5377'
p633
((lp634
(I8
I3
tp635
a(I6
I3
tp636
a(I3
I12152
I90
I56
tp637
tp638
sS'354446638394fb6'
p639
((lp640
(I4
I6
tp641
a(I2
I4
tp642
a(I3
I6635
I106
I52
tp643
tp644
sS'838492939495f424344535455'
p645
((lp646
g491
a(I8
I2
tp647
a(I3
I32653
I1100
I54
tp648
tp649
sS'73839294f2665'
p650
((lp651
(I9
I2
tp652
a(I7
I4
tp653
a(I5
I6
tp654
a(I3
I3443
I41
I34
tp655
tp656
sS'358384929394f4253'
p657
((lp658
g491
a(I7
I4
tp659
a(I3
I7406
I77
I54
tp660
tp661
sS'14456383f87'
p662
((lp663
(I1
I4
tp664
a(I0
I3
tp665
a(I1
I26
I0
I0
tp666
tp667
sS'738283849394f333436424553'
p668
((lp669
(I8
I4
tp670
a(I6
I2
tp671
a(I4
I4
tp672
a(I4
I6
tp673
a(I2
I6
tp674
a(I3
I13486
I286
I56
tp675
tp676
sS'4263849395f97'
p677
((lp678
(I9
I5
tp679
a(I7
I3
tp680
a(I5
I3
tp681
a(I3
I1
tp682
a(I3
I4042
I71
I36
tp683
tp684
sS'457382849394f6475'
p685
((lp686
(I8
I4
tp687
a(I6
I6
tp688
a(I3
I800
I34
I1
tp689
tp690
sS'3541546482fb6'
p691
((lp692
(I6
I4
tp693
a(I4
I4
tp694
a(I2
I6
tp695
a(I3
I5173
I54
I35
tp696
tp697
sS'1573849394f33'
p698
((lp699
g622
a(I0
I4
tp700
a(I1
I37
I0
I0
tp701
tp702
sS'838492939495f434445535464'
p703
((lp704
(I9
I5
tp705
a(I7
I3
tp706
a(I5
I5
tp707
a(I3
I5
tp708
a(I3
I63154
I1537
I56
tp709
tp710
sS'2242638494fc4'
p711
((lp712
(I8
I4
tp713
a(I7
I3
tp714
a(I2
I6876
I133
I42
tp715
tp716
sS'25456383f77'
p717
((lp718
g498
ag664
a(I3
I1457
I17
I20
tp719
tp720
sS'2242637394fb4'
p721
((lp722
(I6
I3
tp723
a(I8
I3
tp724
a(I10
I5
tp725
a(I12
I3
tp726
a(I1
I10
I0
I0
tp727
tp728
sS'828384939495f424552535455'
p729
((lp730
(I9
I5
tp731
a(I7
I3
tp732
a(I3
I27999
I920
I51
tp733
tp734
sS'8384929395f425457'
p735
((lp736
(I9
I2
tp737
a(I7
I4
tp738
a(I3
I5666
I72
I48
tp739
tp740
sS'3541748284f97'
p741
((lp742
(I8
I4
tp743
ag693
a(I3
I4180
I36
I38
tp744
tp745
sS'838492939495f434445525354'
p746
((lp747
(I9
I2
tp748
a(I8
I2
tp749
a(I3
I34787
I1202
I53
tp750
tp751
sS'45638394f57'
p752
((lp753
(I9
I4
tp754
a(I7
I2
tp755
a(I5
I4
tp756
ag497
a(I3
I2082
I37
I32
tp757
tp758
sS'4174849395f77'
p759
((lp760
g738
a(I6
I3
tp761
a(I3
I4522
I83
I41
tp762
tp763
sS'3142638494fb5'
p764
((lp765
g682
a(I2
I2
tp766
a(I3
I5471
I117
I39
tp767
tp768
sS'828384939495f424452535455'
p769
((lp770
g556
a(I7
I3
tp771
a(I3
I18052
I346
I53
tp772
tp773
sS'56638394f47'
p774
((lp775
g654
a(I4
I5
tp776
a(I3
I1740
I28
I30
tp777
tp778
sS'466373829394f5387'
p779
((lp780
g647
a(I6
I4
tp781
a(I6
I2
tp782
a(I4
I4
tp783
a(I3
I6853
I55
I58
tp784
tp785
sS'267382839394f243334'
p786
((lp787
g674
ag612
a(I3
I25605
I806
I45
tp788
tp789
sS'56738394f37'
p790
((lp791
g568
a(I6
I3
tp792
a(I3
I1859
I10
I30
tp793
tp794
sS'738283849394f425253545564'
p795
((lp796
(I8
I3
tp797
a(I6
I3
tp798
a(I4
I1
tp799
a(I4
I3
tp800
a(I6
I5
tp801
a(I4
I5
tp802
a(I3
I6853
I156
I51
tp803
tp804
sS'738283849394f435253545566'
p805
((lp806
g687
a(I6
I2
tp807
a(I4
I2
tp808
a(I4
I4
tp809
a(I6
I4
tp810
ag641
a(I3
I22095
I561
I60
tp811
tp812
sS'157383849394f13233442'
p813
((lp814
g517
a(I0
I4
tp815
a(I1
I51
I0
I0
tp816
tp817
sS'2630355482fc4'
p818
((lp819
(I5
I4
tp820
a(I4
I3
tp821
a(I2
I4747
I101
I33
tp822
tp823
sS'7483849395f425467'
p824
((lp825
(I8
I3
tp826
a(I6
I5
tp827
a(I4
I3
tp828
ag550
a(I3
I10912
I131
I52
tp829
tp830
sS'3541828494f87'
p831
((lp832
(I9
I4
tp833
a(I7
I4
tp834
a(I3
I4346
I41
I38
tp835
tp836
sS'738283849394f424452535455'
p837
((lp838
(I8
I3
tp839
a(I6
I3
tp840
a(I4
I1
tp841
a(I4
I3
tp842
a(I4
I5
tp843
a(I3
I7192
I148
I53
tp844
tp845
sS'3142638493fa6'
p846
((lp847
(I9
I3
tp848
a(I9
I4
tp849
a(I3
I4401
I78
I36
tp850
tp851
sS'838492939495f334244455354'
p852
((lp853
g748
a(I8
I2
tp854
a(I3
I30563
I1181
I54
tp855
tp856
sS'7383849294f26535463'
p857
((lp858
(I8
I4
tp859
a(I6
I2
tp860
a(I4
I4
tp861
a(I6
I4
tp862
a(I3
I15489
I389
I51
tp863
tp864
sS'354446639394fa7'
p865
((lp866
(I9
I3
tp867
a(I8
I3
tp868
a(I3
I5475
I49
I47
tp869
tp870
sS'738283849394f333435424554'
p871
((lp872
g854
a(I6
I4
tp873
a(I4
I4
tp874
ag516
a(I3
I26260
I667
I52
tp875
tp876
sS'3541647482fa6'
p877
((lp878
g834
ag820
a(I3
I5304
I84
I32
tp879
tp880
sss.