(dp0
I1
(dp1
S'north'
p2
(dp3
sS'south'
p4
(dp5
S'838492939495f424344455463'
p6
((lp7
(I9
I5
tp8
a(I7
I3
tp9
a(I5
I3
tp10
a(I3
I3
tp11
a(I5
I5
tp12
a(I3
I5
tp13
a(I1
I79
I0
I0
tp14
tp15
sssI2
(dp16
g2
(dp17
S'838492939495f424344455354'
p18
((lp19
(I4
I2
tp20
a(I5
I2
tp21
a(I2
I697
I0
I52
tp22
tp23
sS'738492939495f434445525354'
p24
((lp25
(I4
I5
tp26
a(I6
I3
tp27
a(I8
I3
tp28
a(I8
I5
tp29
a(I10
I3
tp30
a(I8
I1
tp31
a(I2
I534
I0
I70
tp32
tp33
ssg4
(dp34
S'56637394f37'
p35
((lp36
(I7
I3
tp37
a(I5
I3
tp38
a(I2
I98
I0
I30
tp39
tp40
sS'73839294f2665'
p41
((lp42
(I9
I2
tp43
a(I7
I4
tp44
a(I5
I6
tp45
a(I2
I149
I0
I34
tp46
tp47
sS'8384929394f26435354'
p48
((lp49
(I9
I3
tp50
ag37
a(I2
I765
I0
I45
tp51
tp52
sS'838492939495f424344455464'
p53
((lp54
(I9
I3
tp55
a(I7
I5
tp56
a(I5
I3
tp57
a(I3
I3
tp58
a(I5
I5
tp59
a(I3
I5
tp60
a(I2
I1271
I0
I67
tp61
tp62
sS'838492939495f424344455463'
p63
((lp64
(I9
I5
tp65
a(I7
I3
tp66
a(I5
I3
tp67
a(I3
I3
tp68
a(I5
I5
tp69
a(I3
I5
tp70
a(I2
I997
I0
I70
tp71
tp72
sS'358384929495f4253'
p73
((lp74
g60
a(I2
I4
tp75
a(I2
I511
I0
I52
tp76
tp77
sS'53566394f47'
p78
((lp79
g45
a(I4
I5
tp80
a(I2
I124
I0
I29
tp81
tp82
sS'248384929495f4263'
p83
((lp84
(I9
I2
tp85
a(I7
I4
tp86
a(I5
I2
tp87
a(I3
I2
tp88
a(I1
I28
I0
I0
tp89
tp90
sS'838492939495f434445535464'
p91
((lp92
g8
a(I7
I3
tp93
a(I5
I5
tp94
a(I3
I5
tp95
a(I2
I1249
I0
I55
tp96
tp97
sS'33434594f77'
p98
((lp99
(I4
I3
tp100
a(I2
I3
tp101
a(I2
I116
I0
I29
tp102
tp103
sS'838492939495f424445535463'
p104
((lp105
(I9
I2
tp106
a(I7
I4
tp107
a(I5
I2
tp108
a(I3
I2
tp109
a(I2
I1330
I0
I55
tp110
tp111
sS'23334594f87'
p112
((lp113
(I3
I3
tp114
a(I1
I3
tp115
a(I2
I115
I0
I29
tp116
tp117
sS'13234594f97'
p118
((lp119
g101
a(I0
I3
tp120
a(I1
I19
I0
I0
tp121
tp122
sS'56738394f36'
p123
((lp124
(I8
I3
tp125
a(I6
I3
tp126
a(I2
I120
I0
I32
tp127
tp128
sS'45536394f57'
p129
((lp130
g126
ag100
a(I2
I89
I0
I29
tp131
tp132
sS'7383849294f26535463'
p133
((lp134
(I8
I4
tp135
a(I6
I2
tp136
a(I4
I4
tp137
a(I6
I4
tp138
a(I2
I248
I0
I55
tp139
tp140
sS'43455394f67'
p141
((lp142
g38
ag114
a(I2
I95
I0
I29
tp143
tp144
sssI3
(dp145
g2
(dp146
S'416373f33c2'
p147
((lp148
(I12
I2
tp149
a(I13
I3
tp150
a(I1
I14
I0
I0
tp151
tp152
sS'738384929394f434445525354'
p153
((lp154
(I4
I4
tp155
a(I4
I2
tp156
a(I6
I4
tp157
a(I8
I2
tp158
a(I10
I2
tp159
a(I3
I41014
I968
I60
tp160
tp161
sS'73838494f4345525354a2'
p162
((lp163
(I4
I5
tp164
a(I6
I3
tp165
a(I3
I25269
I722
I46
tp166
tp167
sS'417394f33a2'
p168
((lp169
g159
a(I11
I2
tp170
a(I3
I2001
I149
I12
tp171
tp172
sS'417383f33b2'
p173
((lp174
g170
ag149
a(I3
I1847
I162
I9
tp175
tp176
sS'838492939495f424344455354'
p177
((lp178
(I4
I2
tp179
a(I5
I2
tp180
a(I3
I24013
I539
I52
tp181
tp182
sS'42738394f5253a2'
p183
((lp184
(I5
I3
tp185
a(I5
I1
tp186
a(I3
I3
tp187
a(I3
I4789
I350
I23
tp188
tp189
ssg4
(dp190
S'3383849294f26'
p191
((lp192
(I9
I2
tp193
a(I7
I4
tp194
a(I3
I2980
I14
I37
tp195
tp196
sS'328384939495f44535465'
p197
((lp198
(I9
I3
tp199
a(I7
I5
tp200
a(I5
I5
tp201
a(I3
I3
tp202
a(I3
I8387
I139
I59
tp203
tp204
sS'838492939495f424344535463'
p205
((lp206
(I9
I2
tp207
a(I7
I4
tp208
a(I5
I2
tp209
a(I3
I2
tp210
a(I3
I60900
I1501
I57
tp211
tp212
sS'323383849495f5364'
p213
((lp214
(I9
I4
tp215
a(I7
I4
tp216
a(I5
I4
tp217
a(I5
I2
tp218
a(I1
I5
I0
I0
tp219
tp220
sS'3354638384f56'
p221
((lp222
(I6
I3
tp223
a(I4
I5
tp224
a(I6
I7
tp225
a(I1
I29
I0
I0
tp226
tp227
sS'838492939495f434445535464'
p228
((lp229
(I9
I5
tp230
a(I7
I3
tp231
a(I5
I5
tp232
a(I3
I5
tp233
a(I3
I63154
I1537
I56
tp234
tp235
sS'3363838494f46'
p236
((lp237
(I9
I4
tp238
a(I7
I2
tp239
a(I5
I4
tp240
a(I3
I5101
I63
I40
tp241
tp242
sS'8384929394f15435464'
p243
((lp244
g199
a(I7
I3
tp245
a(I5
I5
tp246
a(I5
I3
tp247
a(I3
I3
tp248
a(I3
I33479
I677
I49
tp249
tp250
sS'3374838494f36'
p251
((lp252
g194
ag223
a(I3
I3750
I37
I34
tp253
tp254
sS'358384929394f43535464'
p255
((lp256
g233
a(I2
I4
tp257
a(I3
I39635
I968
I53
tp258
tp259
sss.