(dp0
I1
(dp1
S'north'
p2
(dp3
S'3373b3f5685'
p4
((lp5
(I8
I5
tp6
a(I9
I4
tp7
a(I1
I17
I0
I0
tp8
tp9
sS'7384b3f535667'
p10
((lp11
(I6
I7
tp12
a(I7
I6
tp13
a(I1
I21
I0
I0
tp14
tp15
sS'8384b3f455356'
p16
((lp17
(I4
I5
tp18
ag12
a(I1
I25
I0
I0
tp19
tp20
sS'2373b3f5694'
p21
((lp22
g7
a(I10
I5
tp23
a(I1
I17
I0
I0
tp24
tp25
sS'4473b3f5676'
p26
((lp27
g13
ag6
a(I1
I17
I0
I0
tp28
tp29
sS'7483849394f43455356'
p30
((lp31
(I4
I3
tp32
a(I6
I3
tp33
a(I8
I5
tp34
a(I10
I3
tp35
a(I1
I38
I0
I0
tp36
tp37
sS'0373b3f56b5'
p38
((lp39
(ta(I0
I1
I0
I0
tp40
tp41
sS'838492939495f424344455354'
p42
((lp43
(I4
I2
tp44
a(I6
I4
tp45
a(I1
I59
I0
I0
tp46
tp47
sS'0473b3f56b5'
p48
((lp49
(ta(I0
I1
I0
I0
tp50
tp51
sS'338384929394f43455354'
p52
((lp53
(I5
I4
tp54
a(I3
I2
tp55
a(I3
I4
tp56
a(I5
I6
tp57
a(I1
I38
I0
I0
tp58
tp59
sS'1373b3f56a5'
p60
((lp61
g23
a(I11
I5
tp62
a(I1
I17
I0
I0
tp63
tp64
ssS'south'
p65
(dp66
S'4473b3f5685'
p67
((lp68
(I4
I4
tp69
a(I3
I3
tp70
a(I1
I25
I0
I0
tp71
tp72
sS'3373b3f5694'
p73
((lp74
g70
a(I2
I3
tp75
a(I1
I25
I0
I0
tp76
tp77
sS'838492939495f424344455463'
p78
((lp79
(I9
I5
tp80
a(I7
I3
tp81
a(I5
I3
tp82
a(I3
I3
tp83
a(I5
I5
tp84
a(I3
I5
tp85
a(I1
I79
I0
I0
tp86
tp87
sS'7384b3f535676'
p88
((lp89
(I8
I4
tp90
a(I6
I2
tp91
ag69
a(I1
I26
I0
I0
tp92
tp93
sS'8384929394f43455356'
p94
((lp95
(I9
I2
tp96
a(I7
I4
tp97
a(I1
I50
I0
I0
tp98
tp99
sS'1373b3f56b5'
p100
((lp101
(I1
I3
tp102
a(I0
I3
tp103
a(I1
I18
I0
I0
tp104
tp105
sS'838493f455356a3'
p106
((lp107
(I9
I3
tp108
a(I11
I3
tp109
a(I1
I28
I0
I0
tp110
tp111
sS'358384929394f4264'
p112
((lp113
(I9
I3
tp114
a(I7
I5
tp115
a(I5
I3
tp116
a(I3
I1
tp117
a(I1
I41
I0
I0
tp118
tp119
sS'8384b3f535667'
p120
((lp121
(I8
I3
tp122
a(I7
I3
tp123
a(I1
I25
I0
I0
tp124
tp125
sS'838492939495f434445535464'
p126
((lp127
(I9
I5
tp128
a(I7
I3
tp129
a(I5
I5
tp130
a(I3
I3
tp131
a(I1
I65
I0
I0
tp132
tp133
sS'0373b3f56b5'
p134
((lp135
g103
a(I0
I4
tp136
a(I1
I18
I0
I0
tp137
tp138
sS'2373b3f56a5'
p139
((lp140
g75
ag102
a(I1
I25
I0
I0
tp141
tp142
sS'838492939495f424344455354'
p143
((lp144
(I9
I2
tp145
a(I7
I4
tp146
a(I1
I59
I0
I0
tp147
tp148
sS'0473b3f56b5'
p149
((lp150
g136
a(I0
I3
tp151
a(I1
I18
I0
I0
tp152
tp153
sssI2
(dp154
g2
(dp155
sg65
(dp156
S'838492939495f424445525354'
p157
((lp158
(I9
I2
tp159
a(I8
I2
tp160
a(I2
I1042
I0
I53
tp161
tp162
sS'838492939495f424445535465'
p163
((lp164
(I9
I3
tp165
a(I7
I5
tp166
a(I5
I5
tp167
a(I3
I3
tp168
a(I5
I1
tp169
a(I2
I1145
I0
I60
tp170
tp171
sS'358384929394f4244'
p172
((lp173
(I3
I5
tp174
a(I5
I3
tp175
a(I3
I1
tp176
a(I1
I57
I0
I0
tp177
tp178
sS'1525647483fa0'
p179
((lp180
(I1
I5
tp181
a(I0
I4
tp182
a(I1
I34
I0
I0
tp183
tp184
sS'748283848593f424445525354'
p185
((lp186
(I8
I3
tp187
a(I6
I5
tp188
a(I4
I3
tp189
a(I4
I1
tp190
a(I2
I435
I0
I59
tp191
tp192
sS'7482838493f4043455354'
p193
((lp194
(I8
I4
tp195
a(I6
I4
tp196
a(I4
I2
tp197
a(I4
I4
tp198
a(I4
I6
tp199
a(I2
I498
I0
I45
tp200
tp201
sS'358384929394f4264'
p202
((lp203
(I9
I3
tp204
a(I7
I5
tp205
a(I5
I3
tp206
a(I3
I1
tp207
a(I1
I41
I0
I0
tp208
tp209
sS'358283849394f4452'
p210
((lp211
(I3
I5
tp212
a(I5
I3
tp213
a(I5
I1
tp214
a(I1
I57
I0
I0
tp215
tp216
sS'73748284f304345'
p217
((lp218
(I8
I2
tp219
a(I6
I4
tp220
a(I2
I164
I0
I32
tp221
tp222
sS'828384939495f434445525354'
p223
((lp224
(I9
I5
tp225
a(I7
I3
tp226
a(I2
I954
I0
I52
tp227
tp228
sS'838492939495f424344455254'
p229
((lp230
(I9
I2
tp231
a(I8
I2
tp232
a(I2
I857
I0
I53
tp233
tp234
sS'738283848594f424344455355'
p235
((lp236
(I9
I4
tp237
a(I7
I2
tp238
a(I7
I4
tp239
a(I2
I1137
I0
I53
tp240
tp241
sS'2564748393f4470'
p242
((lp243
(I9
I3
tp244
a(I7
I3
tp245
a(I7
I5
tp246
a(I5
I3
tp247
a(I3
I5
tp248
a(I1
I5
tp249
a(I2
I193
I0
I43
tp250
tp251
sS'748283848593f434445525354'
p252
((lp253
(I8
I5
tp254
a(I6
I3
tp255
a(I4
I1
tp256
a(I2
I1334
I0
I54
tp257
tp258
sS'505183849295f4553'
p259
((lp260
(I5
I0
tp261
a(I5
I2
tp262
a(I5
I4
tp263
a(I3
I6
tp264
a(I1
I51
I0
I0
tp265
tp266
sS'828384939495f424344455354'
p267
((lp268
(I9
I5
tp269
a(I7
I3
tp270
a(I2
I1001
I0
I52
tp271
tp272
sS'838492939495f424344455463'
p273
((lp274
(I9
I5
tp275
a(I7
I3
tp276
a(I5
I3
tp277
a(I3
I3
tp278
a(I5
I5
tp279
ag174
a(I2
I997
I0
I70
tp280
tp281
sS'738283848593f424344455354'
p282
((lp283
(I9
I3
tp284
ag237
a(I2
I1096
I0
I39
tp285
tp286
sS'518384929495f455462'
p287
((lp288
(I9
I4
tp289
a(I7
I2
tp290
a(I5
I2
tp291
ag261
a(I2
I677
I0
I60
tp292
tp293
sS'738283848594f334244525354'
p294
((lp295
(I8
I3
tp296
a(I6
I3
tp297
a(I4
I1
tp298
a(I4
I3
tp299
a(I2
I3
tp300
a(I2
I323
I0
I57
tp301
tp302
sS'64737484f303445'
p303
((lp304
(I7
I3
tp305
a(I5
I5
tp306
a(I3
I5
tp307
a(I3
I3
tp308
a(I2
I133
I0
I32
tp309
tp310
sS'338384929394f42444565'
p311
((lp312
(I9
I3
tp313
a(I7
I5
tp314
a(I5
I5
tp315
a(I3
I5
tp316
a(I5
I3
tp317
a(I3
I1
tp318
a(I1
I46
I0
I0
tp319
tp320
sS'828384939495f444552535463'
p321
((lp322
(I8
I2
tp323
a(I9
I2
tp324
a(I2
I1617
I0
I52
tp325
tp326
sS'13335484f71'
p327
((lp328
(I1
I3
tp329
a(I0
I3
tp330
a(I1
I26
I0
I0
tp331
tp332
sS'33647484f41'
p333
((lp334
g239
a(I5
I4
tp335
a(I2
I109
I0
I28
tp336
tp337
sS'738283848594f434445525354'
p338
((lp339
g237
a(I7
I2
tp340
a(I7
I4
tp341
a(I2
I1391
I0
I56
tp342
tp343
sS'738283849394f344244535456'
p344
((lp345
(I8
I3
tp346
a(I6
I3
tp347
a(I4
I3
tp348
a(I4
I5
tp349
a(I2
I3
tp350
a(I2
I280
I0
I56
tp351
tp352
sS'2574828393f4460'
p353
((lp354
g323
a(I8
I4
tp355
a(I6
I4
tp356
a(I2
I223
I0
I41
tp357
tp358
sS'7482848593f30444553'
p359
((lp360
(I8
I5
tp361
a(I6
I3
tp362
a(I4
I3
tp363
a(I2
I318
I0
I48
tp364
tp365
sS'828384939495f434445525463'
p366
((lp367
(I9
I5
tp368
a(I7
I3
tp369
a(I5
I3
tp370
a(I3
I3
tp371
a(I5
I5
tp372
ag212
a(I2
I871
I0
I58
tp373
tp374
sS'538384929394f4243444555'
p375
((lp376
g277
a(I3
I3
tp377
a(I5
I1
tp378
a(I2
I934
I0
I51
tp379
tp380
sS'838492939495f444552536372'
p381
((lp382
(I8
I4
tp383
a(I8
I2
tp384
a(I6
I2
tp385
a(I4
I2
tp386
a(I6
I4
tp387
a(I2
I976
I0
I62
tp388
tp389
sS'8392939495f444565'
p390
((lp391
g324
a(I7
I4
tp392
a(I5
I6
tp393
a(I3
I4
tp394
a(I5
I4
tp395
a(I1
I40
I0
I0
tp396
tp397
sS'738283849394f424345525354'
p398
((lp399
(I9
I4
tp400
a(I8
I5
tp401
a(I2
I1506
I0
I52
tp402
tp403
sS'248384929394f4264'
p404
((lp405
(I9
I3
tp406
a(I7
I5
tp407
a(I5
I3
tp408
a(I3
I1
tp409
a(I1
I41
I0
I0
tp410
tp411
sS'737482838485f424344455354'
p412
((lp413
g270
a(I7
I5
tp414
ag244
a(I2
I1498
I0
I52
tp415
tp416
sS'234051576694f43'
p417
((lp418
g350
a(I1
I3
tp419
a(I2
I160
I0
I37
tp420
tp421
sS'248384929394f4245'
p422
((lp423
(I9
I2
tp424
a(I7
I4
tp425
a(I2
I242
I0
I54
tp426
tp427
sS'738283849394f424344455355'
p428
((lp429
(I9
I4
tp430
ag361
a(I2
I1367
I0
I49
tp431
tp432
sS'2535647483f90'
p433
((lp434
(I3
I5
tp435
ag181
a(I2
I152
I0
I35
tp436
tp437
sS'828384939495f424344455253'
p438
((lp439
(I9
I5
tp440
a(I7
I3
tp441
a(I2
I1169
I0
I52
tp442
tp443
sS'235762667394f45'
p444
((lp445
(I7
I3
tp446
a(I5
I1
tp447
a(I2
I240
I0
I43
tp448
tp449
sS'22335484f61'
p450
((lp451
(I2
I2
tp452
ag329
a(I2
I154
I0
I26
tp453
tp454
sS'247483849394f4244'
p455
((lp456
(I2
I4
tp457
a(I1
I3
tp458
a(I2
I277
I0
I51
tp459
tp460
sS'2564747583f4480'
p461
((lp462
g246
a(I5
I3
tp463
ag435
a(I1
I5
tp464
a(I2
I182
I0
I42
tp465
tp466
sS'828384939495f344244535455'
p467
((lp468
(I9
I5
tp469
ag446
a(I2
I850
I0
I54
tp470
tp471
sS'738283848593f424344525354'
p472
((lp473
(I9
I3
tp474
a(I9
I4
tp475
a(I2
I1214
I0
I41
tp476
tp477
sS'838492939495f434445525354'
p478
((lp479
(I9
I2
tp480
ag323
a(I2
I1071
I0
I53
tp481
tp482
sS'3674828393f4450'
p483
((lp484
(I3
I6
tp485
a(I2
I5
tp486
a(I2
I205
I0
I39
tp487
tp488
sS'137483849394f4245'
p489
((lp490
g458
a(I0
I3
tp491
a(I1
I51
I0
I0
tp492
tp493
sS'74828493f304245'
p494
((lp495
g244
a(I7
I5
tp496
ag305
a(I2
I206
I0
I31
tp497
tp498
sS'358384929394f4255'
p499
((lp500
g174
ag457
a(I2
I321
I0
I53
tp501
tp502
sS'237382849394f425455'
p503
((lp504
(I8
I2
tp505
a(I6
I4
tp506
a(I4
I4
tp507
a(I6
I6
tp508
a(I2
I368
I0
I51
tp509
tp510
sS'237382848594f345354'
p511
((lp512
g300
a(I4
I5
tp513
a(I6
I3
tp514
a(I4
I3
tp515
a(I1
I73
I0
I0
tp516
tp517
sS'235157626694f44'
p518
((lp519
(I6
I2
tp520
a(I4
I0
tp521
a(I2
I178
I0
I40
tp522
tp523
sS'134051576694f44'
p524
((lp525
g419
a(I0
I3
tp526
a(I1
I34
I0
I0
tp527
tp528
sS'4674828393f4044'
p529
((lp530
g199
ag485
a(I2
I287
I0
I40
tp531
tp532
sS'748283848593f424344455355'
p533
((lp534
g244
a(I7
I3
tp535
a(I2
I1164
I0
I51
tp536
tp537
sS'738283849394f434445525463'
p538
((lp539
g226
a(I5
I3
tp540
a(I3
I3
tp541
a(I5
I5
tp542
a(I3
I5
tp543
a(I2
I1500
I0
I47
tp544
tp545
sS'838492939495f424344455355'
p546
((lp547
g424
a(I8
I2
tp548
a(I2
I848
I0
I53
tp549
tp550
sS'33546484f51'
p551
((lp552
g220
a(I4
I4
tp553
ag452
a(I2
I114
I0
I30
tp554
tp555
sS'838492939495f344244455354'
p556
((lp557
(I9
I2
tp558
ag505
a(I2
I1041
I0
I53
tp559
tp560
sS'235766738494f44'
p561
((lp562
(I8
I4
tp563
ag520
a(I2
I201
I0
I47
tp564
tp565
sS'236673849394f43'
p566
((lp567
g165
a(I7
I5
tp568
a(I5
I7
tp569
a(I2
I153
I0
I48
tp570
tp571
sS'738283849394f434445525354'
p572
((lp573
(I9
I4
tp574
ag254
a(I2
I1359
I0
I50
tp575
tp576
sssI3
(dp577
g2
(dp578
S'558283849294f5253546377'
p579
((lp580
(I5
I3
tp581
a(I7
I3
tp582
a(I9
I1
tp583
a(I9
I3
tp584
a(I9
I5
tp585
a(I3
I16984
I452
I37
tp586
tp587
sS'8284a5f7077'
p588
((lp589
(I7
I7
tp590
a(I8
I6
tp591
a(I3
I782
I82
I7
tp592
tp593
sS'828492939495f434445525354'
p594
((lp595
(I4
I5
tp596
a(I6
I3
tp597
a(I3
I18909
I370
I53
tp598
tp599
sS'828384929394f445253546365'
p600
((lp601
(I6
I5
tp602
a(I6
I6
tp603
a(I3
I42216
I827
I56
tp604
tp605
sS'8294a4f7096'
p606
((lp607
(I9
I6
tp608
a(I10
I6
tp609
a(I3
I1236
I123
I9
tp610
tp611
sS'828494f7086'
p612
((lp613
g591
ag608
a(I3
I1303
I138
I9
tp614
tp615
sS'7384a5f6177'
p616
((lp617
(I6
I1
tp618
a(I7
I0
tp619
a(I3
I1569
I208
I6
tp620
tp621
sS'82a4b5f70b6'
p622
((lp623
(I11
I6
tp624
a(I12
I5
tp625
a(I3
I1191
I110
I7
tp626
tp627
sS'838492939495f424344455354'
p628
((lp629
(I4
I2
tp630
a(I5
I2
tp631
a(I3
I24013
I539
I52
tp632
tp633
sS'828392939495f434452535463'
p634
((lp635
(I4
I3
tp636
ag602
a(I3
I59439
I1472
I48
tp637
tp638
sS'738384f527795'
p639
((lp640
(I5
I2
tp641
ag618
a(I3
I2473
I196
I16
tp642
tp643
sS'828384929394f525354636466'
p644
((lp645
g603
ag590
a(I3
I49588
I1083
I59
tp646
tp647
sS'8283929394a4f445253546366'
p648
((lp649
(I4
I4
tp650
a(I6
I2
tp651
a(I6
I4
tp652
a(I3
I77549
I1895
I52
tp653
tp654
sS'82b4f70c5'
p655
((lp656
g625
a(I13
I4
tp657
a(I1
I11
I0
I0
tp658
tp659
sS'82a4b4f70a6'
p660
((lp661
g609
ag624
a(I3
I1177
I106
I8
tp662
tp663
ssg65
(dp664
S'838492939495f424445525354'
p665
((lp666
(I9
I2
tp667
a(I8
I2
tp668
a(I3
I38405
I1448
I53
tp669
tp670
sS'36456383f67'
p671
((lp672
(I3
I6
tp673
a(I2
I5
tp674
a(I3
I2688
I42
I27
tp675
tp676
sS'444663739394f97'
p677
((lp678
(I7
I3
tp679
a(I5
I3
tp680
a(I3
I5
tp681
a(I3
I6614
I81
I50
tp682
tp683
sS'828384939495f333442455354'
p684
((lp685
(I9
I5
tp686
a(I7
I3
tp687
a(I3
I14771
I347
I55
tp688
tp689
sS'267383849394f23333442'
p690
((lp691
(I2
I6
tp692
a(I1
I5
tp693
a(I3
I10190
I208
I46
tp694
tp695
sS'358384929394f4264'
p696
((lp697
(I9
I3
tp698
a(I7
I5
tp699
a(I5
I3
tp700
a(I3
I1
tp701
a(I1
I49
I0
I0
tp702
tp703
sS'8283849394f455254636477'
p704
((lp705
(I9
I3
tp706
a(I7
I3
tp707
a(I5
I3
tp708
a(I5
I5
tp709
a(I3
I5
tp710
a(I3
I42103
I934
I61
tp711
tp712
sS'828384869394f455253546364'
p713
((lp714
(I8
I6
tp715
a(I7
I6
tp716
a(I3
I65608
I1971
I60
tp717
tp718
sS'243544638394fc5'
p719
((lp720
g681
a(I1
I3
tp721
a(I2
I10343
I121
I55
tp722
tp723
sS'4163849395f87'
p724
((lp725
(I4
I1
tp726
a(I4
I2
tp727
a(I3
I3544
I59
I38
tp728
tp729
sS'828384939495f434452535455'
p730
((lp731
(I9
I5
tp732
ag679
a(I3
I26804
I869
I51
tp733
tp734
sS'456673829394f74'
p735
((lp736
g668
a(I6
I4
tp737
a(I8
I4
tp738
a(I1
I5
I0
I0
tp739
tp740
sS'8384929394f26435354'
p741
((lp742
(I9
I3
tp743
a(I7
I3
tp744
a(I3
I8810
I162
I47
tp745
tp746
sS'838492939495f424344455463'
p747
((lp748
(I9
I5
tp749
a(I7
I3
tp750
a(I5
I3
tp751
a(I3
I3
tp752
a(I5
I5
tp753
a(I3
I5
tp754
a(I3
I61731
I1279
I68
tp755
tp756
sS'2635415482fc5'
p757
((lp758
(I4
I1
tp759
a(I3
I0
tp760
a(I2
I4855
I76
I37
tp761
tp762
sS'838492939495f424345535462'
p763
((lp764
(I9
I4
tp765
a(I7
I2
tp766
a(I5
I2
tp767
a(I3
I4
tp768
a(I5
I6
tp769
a(I3
I71409
I1927
I59
tp770
tp771
sS'3582838494f527477'
p772
((lp773
(I8
I3
tp774
a(I8
I5
tp775
a(I6
I3
tp776
ag759
a(I3
I5504
I75
I37
tp777
tp778
sS'7382849394f365355'
p779
((lp780
g668
a(I6
I4
tp781
a(I4
I6
tp782
a(I2
I6
tp783
a(I3
I14143
I250
I44
tp784
tp785
sS'157382839394f142433'
p786
((lp787
(I1
I5
tp788
a(I0
I4
tp789
a(I1
I50
I0
I0
tp790
tp791
sS'828384939495f444552535463'
p792
((lp793
g686
ag715
a(I3
I34758
I870
I54
tp794
tp795
sS'2673849394f43'
p796
((lp797
g783
a(I1
I5
tp798
a(I3
I3152
I47
I30
tp799
tp800
sS'357483849394f4254'
p801
((lp802
(I8
I3
tp803
a(I6
I5
tp804
a(I4
I3
tp805
a(I4
I1
tp806
a(I1
I18
I0
I0
tp807
tp808
sS'467382839394f5377'
p809
((lp810
(I8
I3
tp811
a(I6
I3
tp812
a(I3
I12152
I90
I56
tp813
tp814
sS'354446638394fb6'
p815
((lp816
(I4
I6
tp817
a(I2
I4
tp818
a(I3
I6635
I106
I52
tp819
tp820
sS'838492939495f424344535455'
p821
((lp822
g667
a(I8
I2
tp823
a(I3
I32653
I1100
I54
tp824
tp825
sS'73839294f2665'
p826
((lp827
(I9
I2
tp828
a(I7
I4
tp829
a(I5
I6
tp830
a(I3
I3443
I41
I34
tp831
tp832
sS'358384929394f4253'
p833
((lp834
g667
a(I7
I4
tp835
a(I3
I7406
I77
I54
tp836
tp837
sS'14456383f87'
p838
((lp839
(I1
I4
tp840
a(I0
I3
tp841
a(I1
I26
I0
I0
tp842
tp843
sS'738283849394f333436424553'
p844
((lp845
(I8
I4
tp846
a(I6
I2
tp847
a(I4
I4
tp848
a(I4
I6
tp849
a(I2
I6
tp850
a(I3
I13486
I286
I56
tp851
tp852
sS'4263849395f97'
p853
((lp854
(I9
I5
tp855
a(I7
I3
tp856
a(I5
I3
tp857
a(I3
I1
tp858
a(I3
I4042
I71
I36
tp859
tp860
sS'457382849394f6475'
p861
((lp862
(I8
I4
tp863
a(I6
I6
tp864
a(I3
I800
I34
I1
tp865
tp866
sS'3541546482fb6'
p867
((lp868
(I6
I4
tp869
a(I4
I4
tp870
a(I2
I6
tp871
a(I3
I5173
I54
I35
tp872
tp873
sS'1573849394f33'
p874
((lp875
g798
a(I0
I4
tp876
a(I1
I37
I0
I0
tp877
tp878
sS'838492939495f434445535464'
p879
((lp880
(I9
I5
tp881
a(I7
I3
tp882
a(I5
I5
tp883
a(I3
I5
tp884
a(I3
I63154
I1537
I56
tp885
tp886
sS'2242638494fc4'
p887
((lp888
(I8
I4
tp889
a(I7
I3
tp890
a(I2
I6876
I133
I42
tp891
tp892
sS'25456383f77'
p893
((lp894
g674
ag840
a(I3
I1457
I17
I20
tp895
tp896
sS'2242637394fb4'
p897
((lp898
(I6
I3
tp899
a(I8
I3
tp900
a(I10
I5
tp901
a(I12
I3
tp902
a(I1
I10
I0
I0
tp903
tp904
sS'828384939495f424552535455'
p905
((lp906
(I9
I5
tp907
a(I7
I3
tp908
a(I3
I27999
I920
I51
tp909
tp910
sS'8384929395f425457'
p911
((lp912
(I9
I2
tp913
a(I7
I4
tp914
a(I3
I5666
I72
I48
tp915
tp916
sS'3541748284f97'
p917
((lp918
(I8
I4
tp919
ag869
a(I3
I4180
I36
I38
tp920
tp921
sS'838492939495f434445525354'
p922
((lp923
(I9
I2
tp924
a(I8
I2
tp925
a(I3
I34787
I1202
I53
tp926
tp927
sS'45638394f57'
p928
((lp929
(I9
I4
tp930
a(I7
I2
tp931
a(I5
I4
tp932
ag673
a(I3
I2082
I37
I32
tp933
tp934
sS'4174849395f77'
p935
((lp936
g914
a(I6
I3
tp937
a(I3
I4522
I83
I41
tp938
tp939
sS'3142638494fb5'
p940
((lp941
g858
a(I2
I2
tp942
a(I3
I5471
I117
I39
tp943
tp944
sS'828384939495f424452535455'
p945
((lp946
g732
a(I7
I3
tp947
a(I3
I18052
I346
I53
tp948
tp949
sS'56638394f47'
p950
((lp951
g830
a(I4
I5
tp952
a(I3
I1740
I28
I30
tp953
tp954
sS'466373829394f5387'
p955
((lp956
g823
a(I6
I4
tp957
a(I6
I2
tp958
a(I4
I4
tp959
a(I3
I6853
I55
I58
tp960
tp961
sS'267382839394f243334'
p962
((lp963
g850
ag788
a(I3
I25605
I806
I45
tp964
tp965
sS'56738394f37'
p966
((lp967
g744
a(I6
I3
tp968
a(I3
I1859
I10
I30
tp969
tp970
sS'738283849394f425253545564'
p971
((lp972
(I8
I3
tp973
a(I6
I3
tp974
a(I4
I1
tp975
a(I4
I3
tp976
a(I6
I5
tp977
a(I4
I5
tp978
a(I3
I6853
I156
I51
tp979
tp980
sS'738283849394f435253545566'
p981
((lp982
g863
a(I6
I2
tp983
a(I4
I2
tp984
a(I4
I4
tp985
a(I6
I4
tp986
ag817
a(I3
I22095
I561
I60
tp987
tp988
sS'157383849394f13233442'
p989
((lp990
g693
a(I0
I4
tp991
a(I1
I51
I0
I0
tp992
tp993
sS'2630355482fc4'
p994
((lp995
(I5
I4
tp996
a(I4
I3
tp997
a(I2
I4747
I101
I33
tp998
tp999
sS'7483849395f425467'
p1000
((lp1001
(I8
I3
tp1002
a(I6
I5
tp1003
a(I4
I3
tp1004
ag726
a(I3
I10912
I131
I52
tp1005
tp1006
sS'3541828494f87'
p1007
((lp1008
(I9
I4
tp1009
a(I7
I4
tp1010
a(I3
I4346
I41
I38
tp1011
tp1012
sS'738283849394f424452535455'
p1013
((lp1014
(I8
I3
tp1015
a(I6
I3
tp1016
a(I4
I1
tp1017
a(I4
I3
tp1018
a(I4
I5
tp1019
a(I3
I7192
I148
I53
tp1020
tp1021
sS'3142638493fa6'
p1022
((lp1023
(I9
I3
tp1024
a(I9
I4
tp1025
a(I3
I4401
I78
I36
tp1026
tp1027
sS'838492939495f334244455354'
p1028
((lp1029
g924
a(I8
I2
tp1030
a(I3
I30563
I1181
I54
tp1031
tp1032
sS'7383849294f26535463'
p1033
((lp1034
(I8
I4
tp1035
a(I6
I2
tp1036
a(I4
I4
tp1037
a(I6
I4
tp1038
a(I3
I15489
I389
I51
tp1039
tp1040
sS'354446639394fa7'
p1041
((lp1042
(I9
I3
tp1043
a(I8
I3
tp1044
a(I3
I5475
I49
I47
tp1045
tp1046
sS'357483849394f4263'
p1047
((lp1048
g114
a(I7
I3
tp1049
a(I5
I3
tp1050
a(I3
I1
tp1051
a(I1
I26
I0
I0
tp1052
tp1053
sS'738283849394f333435424554'
p1054
((lp1055
g1030
a(I6
I4
tp1056
a(I4
I4
tp1057
ag692
a(I3
I26260
I667
I52
tp1058
tp1059
sS'3541647482fa6'
p1060
((lp1061
g1010
ag996
a(I3
I5304
I84
I32
tp1062
tp1063
sss.