(dp0
I1
(dp1
S'north'
p2
(dp3
sS'south'
p4
(dp5
ssI2
(dp6
g2
(dp7
sg4
(dp8
S'838492939495f424445535465'
p9
((lp10
(I9
I3
tp11
a(I7
I5
tp12
a(I5
I5
tp13
a(I3
I3
tp14
a(I5
I1
tp15
a(I2
I1145
I0
I60
tp16
tp17
sS'358384929394f4244'
p18
((lp19
(I3
I5
tp20
a(I5
I3
tp21
a(I3
I1
tp22
a(I1
I57
I0
I0
tp23
tp24
sS'1525647483fa0'
p25
((lp26
(I1
I5
tp27
a(I0
I4
tp28
a(I1
I34
I0
I0
tp29
tp30
sS'748283848593f424445525354'
p31
((lp32
(I8
I3
tp33
a(I6
I5
tp34
a(I4
I3
tp35
a(I4
I1
tp36
a(I2
I435
I0
I59
tp37
tp38
sS'7482838493f4043455354'
p39
((lp40
(I8
I4
tp41
a(I6
I4
tp42
a(I4
I2
tp43
a(I4
I4
tp44
a(I4
I6
tp45
a(I2
I498
I0
I45
tp46
tp47
sS'358384929394f4264'
p48
((lp49
(I9
I3
tp50
a(I7
I5
tp51
a(I5
I3
tp52
a(I3
I1
tp53
a(I1
I41
I0
I0
tp54
tp55
sS'738283849394f434445525354'
p56
((lp57
(I9
I4
tp58
a(I8
I5
tp59
a(I2
I1359
I0
I50
tp60
tp61
sS'73748284f304345'
p62
((lp63
(I8
I2
tp64
a(I6
I4
tp65
a(I2
I164
I0
I32
tp66
tp67
sS'738283848594f424344455355'
p68
((lp69
(I9
I4
tp70
a(I7
I2
tp71
a(I7
I4
tp72
a(I2
I1137
I0
I53
tp73
tp74
sS'2564748393f4470'
p75
((lp76
(I9
I3
tp77
a(I7
I3
tp78
a(I7
I5
tp79
a(I5
I3
tp80
a(I3
I5
tp81
a(I1
I5
tp82
a(I2
I193
I0
I43
tp83
tp84
sS'518384929495f455462'
p85
((lp86
(I9
I4
tp87
a(I7
I2
tp88
a(I5
I2
tp89
a(I5
I0
tp90
a(I2
I677
I0
I60
tp91
tp92
sS'505183849295f4553'
p93
((lp94
g90
a(I5
I2
tp95
a(I5
I4
tp96
a(I3
I6
tp97
a(I1
I51
I0
I0
tp98
tp99
sS'828384939495f424344455354'
p100
((lp101
(I9
I5
tp102
a(I7
I3
tp103
a(I2
I1001
I0
I52
tp104
tp105
sS'838492939495f424344455463'
p106
((lp107
(I9
I5
tp108
a(I7
I3
tp109
a(I5
I3
tp110
a(I3
I3
tp111
a(I5
I5
tp112
ag20
a(I2
I997
I0
I70
tp113
tp114
sS'738283848593f424344455354'
p115
((lp116
(I9
I3
tp117
ag70
a(I2
I1096
I0
I39
tp118
tp119
sS'236673849394f43'
p120
((lp121
g11
a(I7
I5
tp122
a(I5
I7
tp123
a(I2
I153
I0
I48
tp124
tp125
sS'748283848593f434445525354'
p126
((lp127
g59
a(I6
I3
tp128
a(I4
I1
tp129
a(I2
I1334
I0
I54
tp130
tp131
sS'13335484f71'
p132
((lp133
(I1
I3
tp134
a(I0
I3
tp135
a(I1
I26
I0
I0
tp136
tp137
sS'4674828393f4044'
p138
((lp139
g45
a(I3
I6
tp140
a(I2
I287
I0
I40
tp141
tp142
sS'738283848594f434445525354'
p143
((lp144
g70
a(I7
I2
tp145
a(I7
I4
tp146
a(I2
I1391
I0
I56
tp147
tp148
sS'738283849394f344244535456'
p149
((lp150
(I8
I3
tp151
a(I6
I3
tp152
a(I4
I3
tp153
a(I4
I5
tp154
a(I2
I3
tp155
a(I2
I280
I0
I56
tp156
tp157
sS'737482838485f424344455354'
p158
((lp159
g103
a(I7
I5
tp160
ag77
a(I2
I1498
I0
I52
tp161
tp162
sS'2574828393f4460'
p163
((lp164
(I8
I2
tp165
a(I8
I4
tp166
a(I6
I4
tp167
a(I2
I223
I0
I41
tp168
tp169
sS'7482848593f30444553'
p170
((lp171
(I8
I5
tp172
a(I6
I3
tp173
a(I4
I3
tp174
a(I2
I318
I0
I48
tp175
tp176
sS'358384929394f4255'
p177
((lp178
g20
a(I2
I4
tp179
a(I2
I321
I0
I53
tp180
tp181
sS'247483849394f4244'
p182
((lp183
g179
a(I1
I3
tp184
a(I2
I277
I0
I51
tp185
tp186
sS'234051576694f43'
p187
((lp188
g155
a(I1
I3
tp189
a(I2
I160
I0
I37
tp190
tp191
sS'248384929394f4245'
p192
((lp193
(I9
I2
tp194
a(I7
I4
tp195
a(I2
I242
I0
I54
tp196
tp197
sS'738283849394f424344455355'
p198
((lp199
(I9
I4
tp200
ag172
a(I2
I1367
I0
I49
tp201
tp202
sS'2535647483f90'
p203
((lp204
(I3
I5
tp205
ag27
a(I2
I152
I0
I35
tp206
tp207
sS'235762667394f45'
p208
((lp209
(I7
I3
tp210
a(I5
I1
tp211
a(I2
I240
I0
I43
tp212
tp213
sS'22335484f61'
p214
((lp215
(I2
I2
tp216
ag134
a(I2
I154
I0
I26
tp217
tp218
sS'2564747583f4480'
p219
((lp220
g79
a(I5
I3
tp221
ag205
a(I1
I5
tp222
a(I2
I182
I0
I42
tp223
tp224
sS'828384939495f344244535455'
p225
((lp226
(I9
I5
tp227
ag210
a(I2
I850
I0
I54
tp228
tp229
sS'838492939495f434445525354'
p230
((lp231
(I9
I2
tp232
ag165
a(I2
I1071
I0
I53
tp233
tp234
sS'3674828393f4450'
p235
((lp236
g140
a(I2
I5
tp237
a(I2
I205
I0
I39
tp238
tp239
sS'137483849394f4245'
p240
((lp241
g184
a(I0
I3
tp242
a(I1
I51
I0
I0
tp243
tp244
sS'237382849394f425455'
p245
((lp246
(I8
I2
tp247
a(I6
I4
tp248
a(I4
I4
tp249
a(I6
I6
tp250
a(I2
I368
I0
I51
tp251
tp252
sS'235766738494f44'
p253
((lp254
(I8
I4
tp255
a(I6
I2
tp256
a(I2
I201
I0
I47
tp257
tp258
sS'134051576694f44'
p259
((lp260
g189
a(I0
I3
tp261
a(I1
I34
I0
I0
tp262
tp263
sS'33647484f41'
p264
((lp265
g72
a(I5
I4
tp266
a(I2
I109
I0
I28
tp267
tp268
sS'748283848593f424344455355'
p269
((lp270
g77
a(I7
I3
tp271
a(I2
I1164
I0
I51
tp272
tp273
sS'838492939495f424344455355'
p274
((lp275
g194
a(I8
I2
tp276
a(I2
I848
I0
I53
tp277
tp278
sS'33546484f51'
p279
((lp280
g65
a(I4
I4
tp281
ag216
a(I2
I114
I0
I30
tp282
tp283
sS'838492939495f344244455354'
p284
((lp285
(I9
I2
tp286
ag247
a(I2
I1041
I0
I53
tp287
tp288
sS'235157626694f44'
p289
((lp290
g256
a(I4
I0
tp291
a(I2
I178
I0
I40
tp292
tp293
sS'74828493f304245'
p294
((lp295
g77
a(I7
I5
tp296
a(I7
I3
tp297
a(I2
I206
I0
I31
tp298
tp299
sS'64737484f303445'
p300
((lp301
g297
a(I5
I5
tp302
a(I3
I5
tp303
a(I3
I3
tp304
a(I2
I133
I0
I32
tp305
tp306
sssI3
(dp307
g2
(dp308
S'82a4b5f70b6'
p309
((lp310
(I11
I6
tp311
a(I12
I5
tp312
a(I3
I1191
I110
I7
tp313
tp314
sS'828492939495f434445525354'
p315
((lp316
(I4
I5
tp317
a(I6
I3
tp318
a(I3
I18909
I370
I53
tp319
tp320
sS'828384929394f445253546365'
p321
((lp322
(I6
I5
tp323
a(I6
I6
tp324
a(I3
I42216
I827
I56
tp325
tp326
sS'828384929394f525354636466'
p327
((lp328
g324
a(I7
I7
tp329
a(I3
I49588
I1083
I59
tp330
tp331
sS'8294a4f7096'
p332
((lp333
(I9
I6
tp334
a(I10
I6
tp335
a(I3
I1236
I123
I9
tp336
tp337
sS'828494f7086'
p338
((lp339
(I8
I6
tp340
ag334
a(I3
I1303
I138
I9
tp341
tp342
sS'7384a5f6177'
p343
((lp344
(I6
I1
tp345
a(I7
I0
tp346
a(I3
I1569
I208
I6
tp347
tp348
sS'8284a5f7077'
p349
((lp350
g329
ag340
a(I3
I782
I82
I7
tp351
tp352
sS'738384f527795'
p353
((lp354
(I5
I2
tp355
ag345
a(I3
I2473
I196
I16
tp356
tp357
sS'828392939495f434452535463'
p358
((lp359
(I4
I3
tp360
ag323
a(I3
I59439
I1472
I48
tp361
tp362
sS'838492939495f424344455354'
p363
((lp364
(I4
I2
tp365
a(I5
I2
tp366
a(I3
I24013
I539
I52
tp367
tp368
sS'558283849294f5253546377'
p369
((lp370
(I5
I3
tp371
a(I7
I3
tp372
a(I9
I1
tp373
a(I9
I3
tp374
a(I9
I5
tp375
a(I3
I16984
I452
I37
tp376
tp377
sS'8283929394a4f445253546366'
p378
((lp379
(I4
I4
tp380
a(I6
I2
tp381
a(I6
I4
tp382
a(I3
I77549
I1895
I52
tp383
tp384
sS'82b4f70c5'
p385
((lp386
g312
a(I13
I4
tp387
a(I1
I11
I0
I0
tp388
tp389
sS'82a4b4f70a6'
p390
((lp391
g335
ag311
a(I3
I1177
I106
I8
tp392
tp393
ssg4
(dp394
S'3142638494fb5'
p395
((lp396
(I3
I1
tp397
a(I2
I2
tp398
a(I3
I5471
I117
I39
tp399
tp400
sS'838492939495f424445525354'
p401
((lp402
(I9
I2
tp403
a(I8
I2
tp404
a(I3
I38405
I1448
I53
tp405
tp406
sS'36456383f67'
p407
((lp408
(I3
I6
tp409
a(I2
I5
tp410
a(I3
I2688
I42
I27
tp411
tp412
sS'444663739394f97'
p413
((lp414
(I7
I3
tp415
a(I5
I3
tp416
a(I3
I5
tp417
a(I3
I6614
I81
I50
tp418
tp419
sS'358384929394f4264'
p420
((lp421
(I9
I3
tp422
a(I7
I5
tp423
a(I5
I3
tp424
a(I3
I1
tp425
a(I1
I49
I0
I0
tp426
tp427
sS'8283849394f455254636477'
p428
((lp429
(I9
I3
tp430
a(I7
I3
tp431
a(I5
I3
tp432
a(I5
I5
tp433
a(I3
I5
tp434
a(I3
I42103
I934
I61
tp435
tp436
sS'828384869394f455253546364'
p437
((lp438
(I8
I6
tp439
a(I7
I6
tp440
a(I3
I65608
I1971
I60
tp441
tp442
sS'243544638394fc5'
p443
((lp444
g417
a(I1
I3
tp445
a(I2
I10343
I121
I55
tp446
tp447
sS'157383849394f13233442'
p448
((lp449
(I1
I5
tp450
a(I0
I4
tp451
a(I1
I51
I0
I0
tp452
tp453
sS'4163849395f87'
p454
((lp455
(I4
I1
tp456
a(I4
I2
tp457
a(I3
I3544
I59
I38
tp458
tp459
sS'828384939495f434452535455'
p460
((lp461
(I9
I5
tp462
ag415
a(I3
I26804
I869
I51
tp463
tp464
sS'456673829394f74'
p465
((lp466
g404
a(I6
I4
tp467
a(I8
I4
tp468
a(I1
I5
I0
I0
tp469
tp470
sS'8384929394f26435354'
p471
((lp472
(I9
I3
tp473
a(I7
I3
tp474
a(I3
I8810
I162
I47
tp475
tp476
sS'838492939495f424344455463'
p477
((lp478
(I9
I5
tp479
a(I7
I3
tp480
a(I5
I3
tp481
a(I3
I3
tp482
a(I5
I5
tp483
a(I3
I5
tp484
a(I3
I61731
I1279
I68
tp485
tp486
sS'2635415482fc5'
p487
((lp488
(I4
I1
tp489
a(I3
I0
tp490
a(I2
I4855
I76
I37
tp491
tp492
sS'838492939495f424345535462'
p493
((lp494
(I9
I4
tp495
a(I7
I2
tp496
a(I5
I2
tp497
a(I3
I4
tp498
a(I5
I6
tp499
a(I3
I71409
I1927
I59
tp500
tp501
sS'3582838494f527477'
p502
((lp503
(I8
I3
tp504
a(I8
I5
tp505
a(I6
I3
tp506
ag489
a(I3
I5504
I75
I37
tp507
tp508
sS'7382849394f365355'
p509
((lp510
g404
a(I6
I4
tp511
a(I4
I6
tp512
a(I2
I6
tp513
a(I3
I14143
I250
I44
tp514
tp515
sS'157382839394f142433'
p516
((lp517
(I1
I5
tp518
a(I0
I4
tp519
a(I1
I50
I0
I0
tp520
tp521
sS'828384939495f444552535463'
p522
((lp523
(I9
I5
tp524
ag439
a(I3
I34758
I870
I54
tp525
tp526
sS'7483849395f425467'
p527
((lp528
(I8
I3
tp529
a(I6
I5
tp530
a(I4
I3
tp531
ag456
a(I3
I10912
I131
I52
tp532
tp533
sS'357483849394f4254'
p534
((lp535
(I8
I3
tp536
a(I6
I5
tp537
a(I4
I3
tp538
a(I4
I1
tp539
a(I1
I18
I0
I0
tp540
tp541
sS'467382839394f5377'
p542
((lp543
(I8
I3
tp544
a(I6
I3
tp545
a(I3
I12152
I90
I56
tp546
tp547
sS'354446638394fb6'
p548
((lp549
(I4
I6
tp550
a(I2
I4
tp551
a(I3
I6635
I106
I52
tp552
tp553
sS'838492939495f424344535455'
p554
((lp555
g403
a(I8
I2
tp556
a(I3
I32653
I1100
I54
tp557
tp558
sS'73839294f2665'
p559
((lp560
(I9
I2
tp561
a(I7
I4
tp562
a(I5
I6
tp563
a(I3
I3443
I41
I34
tp564
tp565
sS'358384929394f4253'
p566
((lp567
g403
a(I7
I4
tp568
a(I3
I7406
I77
I54
tp569
tp570
sS'14456383f87'
p571
((lp572
(I1
I4
tp573
a(I0
I3
tp574
a(I1
I26
I0
I0
tp575
tp576
sS'738283849394f333436424553'
p577
((lp578
(I8
I4
tp579
a(I6
I2
tp580
a(I4
I4
tp581
a(I4
I6
tp582
a(I2
I6
tp583
a(I3
I13486
I286
I56
tp584
tp585
sS'4263849395f97'
p586
((lp587
(I9
I5
tp588
a(I7
I3
tp589
a(I5
I3
tp590
ag397
a(I3
I4042
I71
I36
tp591
tp592
sS'3142638493fa6'
p593
((lp594
(I9
I3
tp595
a(I9
I4
tp596
a(I3
I4401
I78
I36
tp597
tp598
sS'3541546482fb6'
p599
((lp600
(I6
I4
tp601
a(I4
I4
tp602
a(I2
I6
tp603
a(I3
I5173
I54
I35
tp604
tp605
sS'1573849394f33'
p606
((lp607
(I1
I5
tp608
a(I0
I4
tp609
a(I1
I37
I0
I0
tp610
tp611
sS'838492939495f434445535464'
p612
((lp613
(I9
I5
tp614
a(I7
I3
tp615
a(I5
I5
tp616
a(I3
I5
tp617
a(I3
I63154
I1537
I56
tp618
tp619
sS'2242638494fc4'
p620
((lp621
(I8
I4
tp622
a(I7
I3
tp623
a(I2
I6876
I133
I42
tp624
tp625
sS'25456383f77'
p626
((lp627
g410
ag573
a(I3
I1457
I17
I20
tp628
tp629
sS'2242637394fb4'
p630
((lp631
(I6
I3
tp632
a(I8
I3
tp633
a(I10
I5
tp634
a(I12
I3
tp635
a(I1
I10
I0
I0
tp636
tp637
sS'828384939495f424552535455'
p638
((lp639
(I9
I5
tp640
a(I7
I3
tp641
a(I3
I27999
I920
I51
tp642
tp643
sS'8384929395f425457'
p644
((lp645
(I9
I2
tp646
a(I7
I4
tp647
a(I3
I5666
I72
I48
tp648
tp649
sS'3541748284f97'
p650
((lp651
(I8
I4
tp652
ag601
a(I3
I4180
I36
I38
tp653
tp654
sS'838492939495f434445525354'
p655
((lp656
(I9
I2
tp657
a(I8
I2
tp658
a(I3
I34787
I1202
I53
tp659
tp660
sS'45638394f57'
p661
((lp662
(I9
I4
tp663
a(I7
I2
tp664
a(I5
I4
tp665
ag409
a(I3
I2082
I37
I32
tp666
tp667
sS'4174849395f77'
p668
((lp669
g647
a(I6
I3
tp670
a(I3
I4522
I83
I41
tp671
tp672
sS'828384939495f333442455354'
p673
((lp674
g524
a(I7
I3
tp675
a(I3
I14771
I347
I55
tp676
tp677
sS'828384939495f424452535455'
p678
((lp679
g462
a(I7
I3
tp680
a(I3
I18052
I346
I53
tp681
tp682
sS'56638394f47'
p683
((lp684
g563
a(I4
I5
tp685
a(I3
I1740
I28
I30
tp686
tp687
sS'466373829394f5387'
p688
((lp689
g556
a(I6
I4
tp690
a(I6
I2
tp691
a(I4
I4
tp692
a(I3
I6853
I55
I58
tp693
tp694
sS'267382839394f243334'
p695
((lp696
g583
ag518
a(I3
I25605
I806
I45
tp697
tp698
sS'56738394f37'
p699
((lp700
g474
a(I6
I3
tp701
a(I3
I1859
I10
I30
tp702
tp703
sS'738283849394f425253545564'
p704
((lp705
(I8
I3
tp706
a(I6
I3
tp707
a(I4
I1
tp708
a(I4
I3
tp709
a(I6
I5
tp710
a(I4
I5
tp711
a(I3
I6853
I156
I51
tp712
tp713
sS'738283849394f435253545566'
p714
((lp715
(I8
I4
tp716
a(I6
I2
tp717
a(I4
I2
tp718
a(I4
I4
tp719
a(I6
I4
tp720
ag550
a(I3
I22095
I561
I60
tp721
tp722
sS'267383849394f23333442'
p723
((lp724
(I2
I6
tp725
ag450
a(I3
I10190
I208
I46
tp726
tp727
sS'2630355482fc4'
p728
((lp729
(I5
I4
tp730
a(I4
I3
tp731
a(I2
I4747
I101
I33
tp732
tp733
sS'2673849394f43'
p734
((lp735
g513
ag608
a(I3
I3152
I47
I30
tp736
tp737
sS'3541828494f87'
p738
((lp739
(I9
I4
tp740
a(I7
I4
tp741
a(I3
I4346
I41
I38
tp742
tp743
sS'738283849394f424452535455'
p744
((lp745
(I8
I3
tp746
a(I6
I3
tp747
a(I4
I1
tp748
a(I4
I3
tp749
a(I4
I5
tp750
a(I3
I7192
I148
I53
tp751
tp752
sS'457382849394f6475'
p753
((lp754
g716
a(I6
I6
tp755
a(I3
I800
I34
I1
tp756
tp757
sS'838492939495f334244455354'
p758
((lp759
g657
a(I8
I2
tp760
a(I3
I30563
I1181
I54
tp761
tp762
sS'7383849294f26535463'
p763
((lp764
(I8
I4
tp765
a(I6
I2
tp766
a(I4
I4
tp767
a(I6
I4
tp768
a(I3
I15489
I389
I51
tp769
tp770
sS'354446639394fa7'
p771
((lp772
(I9
I3
tp773
a(I8
I3
tp774
a(I3
I5475
I49
I47
tp775
tp776
sS'738283849394f333435424554'
p777
((lp778
g760
a(I6
I4
tp779
a(I4
I4
tp780
ag725
a(I3
I26260
I667
I52
tp781
tp782
sS'3541647482fa6'
p783
((lp784
g741
ag730
a(I3
I5304
I84
I32
tp785
tp786
sss.