(dp0
I1
(dp1
S'north'
p2
(dp3
S'568500000000X3373b3000000'
p4
((lp5
(I8
I5
tp6
a(I9
I4
tp7
a(I1
I17
I0
I0
tp8
tp9
sS'434553540000X338384929394'
p10
((lp11
(I5
I4
tp12
a(I3
I2
tp13
a(I3
I4
tp14
a(I5
I6
tp15
a(I1
I38
I0
I0
tp16
tp17
sS'56a500000000X1373b3000000'
p18
((lp19
(I10
I5
tp20
a(I11
I5
tp21
a(I1
I17
I0
I0
tp22
tp23
sS'424344455354X838492939495'
p24
((lp25
(I4
I2
tp26
a(I6
I4
tp27
a(I1
I59
I0
I0
tp28
tp29
sS'567600000000X4473b3000000'
p30
((lp31
(I7
I6
tp32
ag6
a(I1
I17
I0
I0
tp33
tp34
sS'569400000000X2373b3000000'
p35
((lp36
g7
ag20
a(I1
I17
I0
I0
tp37
tp38
sS'434553560000X748384939400'
p39
((lp40
(I4
I3
tp41
a(I6
I3
tp42
a(I8
I5
tp43
a(I10
I3
tp44
a(I1
I38
I0
I0
tp45
tp46
sS'535667000000X7384b3000000'
p47
((lp48
(I6
I7
tp49
ag32
a(I1
I21
I0
I0
tp50
tp51
sS'455356000000X8384b3000000'
p52
((lp53
(I4
I5
tp54
ag49
a(I1
I25
I0
I0
tp55
tp56
ssS'south'
p57
(dp58
S'535676000000X7384b3000000'
p59
((lp60
(I8
I4
tp61
a(I6
I2
tp62
a(I4
I4
tp63
a(I1
I26
I0
I0
tp64
tp65
sS'56b500000000X1373b3000000'
p66
((lp67
(I1
I3
tp68
a(I0
I3
tp69
a(I1
I18
I0
I0
tp70
tp71
sS'455356a30000X838493000000'
p72
((lp73
(I9
I3
tp74
a(I11
I3
tp75
a(I1
I28
I0
I0
tp76
tp77
sS'569400000000X3373b3000000'
p78
((lp79
(I3
I3
tp80
a(I2
I3
tp81
a(I1
I25
I0
I0
tp82
tp83
sS'535667000000X8384b3000000'
p84
((lp85
(I8
I3
tp86
a(I7
I3
tp87
a(I1
I25
I0
I0
tp88
tp89
sS'434553560000X838492939400'
p90
((lp91
(I9
I2
tp92
a(I7
I4
tp93
a(I1
I50
I0
I0
tp94
tp95
sS'56a500000000X2373b3000000'
p96
((lp97
g81
ag68
a(I1
I25
I0
I0
tp98
tp99
sS'434445535464X838492939495'
p100
((lp101
(I9
I5
tp102
a(I7
I3
tp103
a(I5
I5
tp104
a(I3
I3
tp105
a(I1
I65
I0
I0
tp106
tp107
sS'568500000000X4473b3000000'
p108
((lp109
g63
ag80
a(I1
I25
I0
I0
tp110
tp111
sssI2
(dp112
g2
(dp113
S'435253545563X838692939495'
p114
((lp115
(I4
I3
tp116
a(I4
I4
tp117
a(I2
I738
I0
I41
tp118
tp119
sS'435253545564X475783929394'
p120
((lp121
(I4
I3
tp122
a(I6
I3
tp123
a(I2
I490
I0
I51
tp124
tp125
sS'424344455354X838492939495'
p126
((lp127
(I4
I2
tp128
a(I5
I2
tp129
a(I2
I697
I0
I52
tp130
tp131
sS'434445525354X838485929394'
p132
((lp133
(I4
I5
tp134
a(I6
I3
tp135
a(I2
I698
I0
I53
tp136
tp137
sS'525354636677X154783929394'
p138
((lp139
(I6
I3
tp140
a(I4
I1
tp141
a(I2
I1923
I0
I46
tp142
tp143
sS'445253545563X677783929394'
p144
((lp145
(I4
I4
tp146
a(I6
I2
tp147
a(I6
I4
tp148
a(I2
I582
I0
I50
tp149
tp150
sS'445253545563X778386929394'
p151
((lp152
g117
a(I6
I2
tp153
a(I6
I4
tp154
a(I2
I937
I0
I48
tp155
tp156
sS'525354556364X576783929394'
p157
((lp158
(I6
I3
tp159
ag122
a(I2
I1113
I0
I56
tp160
tp161
sS'525354556364X374783929394'
p162
((lp163
(I6
I4
tp164
a(I4
I4
tp165
a(I6
I6
tp166
a(I2
I1122
I0
I52
tp167
tp168
sS'434452535463X838492939495'
p169
((lp170
(I4
I4
tp171
a(I5
I5
tp172
a(I2
I811
I0
I46
tp173
tp174
sS'525354556366X264783929394'
p175
((lp176
g172
a(I7
I7
tp177
a(I2
I736
I0
I46
tp178
tp179
sS'525354556364X778387929394'
p180
((lp181
g154
ag146
a(I2
I1167
I0
I56
tp182
tp183
ssg57
(dp184
S'435253545564X576783929394'
p185
((lp186
(I6
I7
tp187
a(I4
I7
tp188
a(I2
I313
I0
I40
tp189
tp190
sS'445253545563X778387929394'
p191
((lp192
(I8
I7
tp193
ag187
a(I2
I800
I0
I38
tp194
tp195
sS'525354556364X677783929394'
p196
((lp197
(I7
I7
tp198
a(I5
I7
tp199
a(I2
I456
I0
I39
tp200
tp201
sS'445253545563X838692939495'
p202
((lp203
(I9
I5
tp204
ag198
a(I2
I795
I0
I51
tp205
tp206
sS'415253546677X154783929394'
p207
((lp208
(I1
I5
tp209
a(I0
I4
tp210
a(I1
I39
I0
I0
tp211
tp212
sS'435253545563X838492939495'
p213
((lp214
(I8
I4
tp215
a(I8
I2
tp216
a(I10
I4
tp217
a(I8
I6
tp218
a(I2
I1120
I0
I53
tp219
tp220
sS'434452535463X838485929394'
p221
((lp222
(I8
I5
tp223
ag204
a(I2
I1801
I0
I52
tp224
tp225
sS'525354556364X475783929394'
p226
((lp227
g199
a(I3
I7
tp228
a(I2
I298
I0
I40
tp229
tp230
sS'525354636677X264783929394'
p231
((lp232
(I2
I6
tp233
ag209
a(I2
I526
I0
I40
tp234
tp235
sS'434445525354X838492939495'
p236
((lp237
(I9
I5
tp238
ag223
a(I2
I687
I0
I56
tp239
tp240
sS'525354556366X374783929394'
p241
((lp242
g228
ag233
a(I2
I729
I0
I36
tp243
tp244
sS'525354556364X778386929394'
p245
((lp246
g218
ag193
a(I2
I1473
I0
I40
tp247
tp248
sssI3
(dp249
g2
(dp250
S'545571920000X228600000000'
p251
((lp252
(I7
I1
tp253
a(I8
I1
tp254
a(I3
I3169
I110
I25
tp255
tp256
sS'424344455354X838492939495'
p257
((lp258
(I4
I2
tp259
a(I5
I2
tp260
a(I3
I24013
I539
I52
tp261
tp262
sS'545591920000X337283860000'
p263
((lp264
(I9
I1
tp265
a(I9
I3
tp266
a(I7
I3
tp267
ag253
a(I3
I13092
I584
I28
tp268
tp269
sS'434452535463X828384869394'
p270
((lp271
(I4
I4
tp272
a(I5
I5
tp273
a(I3
I61681
I1910
I49
tp274
tp275
sS'435253545563X728283848693'
p276
((lp277
(I5
I2
tp278
a(I7
I4
tp279
a(I9
I2
tp280
a(I3
I20465
I531
I45
tp281
tp282
sS'434445525354X828384939495'
p283
((lp284
(I4
I5
tp285
a(I6
I3
tp286
a(I3
I22358
I530
I53
tp287
tp288
sS'545581920000X128600000000'
p289
((lp290
(I5
I5
tp291
a(I4
I4
tp292
a(I2
I5111
I211
I32
tp293
tp294
sS'435354556392X728283869300'
p295
((lp296
(I5
I3
tp297
a(I7
I3
tp298
a(I9
I1
tp299
a(I3
I37034
I1133
I44
tp300
tp301
ssg57
(dp302
S'434452535463X828384939495'
p303
((lp304
(I9
I5
tp305
a(I8
I6
tp306
a(I3
I37372
I882
I55
tp307
tp308
sS'545581920000X228600000000'
p309
((lp310
(I2
I2
tp311
a(I1
I2
tp312
a(I3
I1588
I192
I7
tp313
tp314
sS'435354556392X728284869300'
p315
((lp316
(I8
I4
tp317
a(I8
I3
tp318
a(I3
I38297
I1407
I45
tp319
tp320
sS'434445525354X838492939495'
p321
((lp322
(I9
I2
tp323
a(I8
I2
tp324
a(I3
I29452
I994
I53
tp325
tp326
sS'545571920000X338600000000'
p327
((lp328
(I3
I3
tp329
ag311
a(I3
I1755
I116
I15
tp330
tp331
sS'435253545563X828384869394'
p332
((lp333
(I9
I4
tp334
a(I7
I2
tp335
a(I3
I27520
I518
I61
tp336
tp337
sS'445481920000X128600000000'
p338
((lp339
g312
a(I0
I3
tp340
a(I1
I10
I0
I0
tp341
tp342
sS'435455639192X728386930000'
p343
((lp344
(I9
I3
tp345
a(I7
I3
tp346
a(I5
I3
tp347
a(I3
I3
tp348
a(I3
I21179
I798
I31
tp349
tp350
sss.