(dp0
I1
(dp1
S'north'
p2
(dp3
sS'south'
p4
(dp5
ssI2
(dp6
g2
(dp7
sg4
(dp8
S'424344455463X838492939495'
p9
((lp10
(I9
I5
tp11
a(I7
I3
tp12
a(I5
I3
tp13
a(I3
I3
tp14
a(I5
I5
tp15
a(I3
I5
tp16
a(I2
I997
I0
I70
tp17
tp18
sS'434452535463X828384939495'
p19
((lp20
(I8
I2
tp21
a(I9
I2
tp22
a(I2
I1505
I0
I52
tp23
tp24
sS'627300000000X245592000000'
p25
((lp26
(I2
I4
tp27
a(I1
I3
tp28
a(I2
I207
I0
I21
tp29
tp30
sS'525463950000X358392939400'
p31
((lp32
(I9
I3
tp33
a(I7
I3
tp34
a(I5
I3
tp35
a(I5
I5
tp36
a(I2
I235
I0
I39
tp37
tp38
sS'455253546364X838492939495'
p39
((lp40
(I9
I5
tp41
a(I7
I3
tp42
a(I5
I5
tp43
a(I3
I5
tp44
a(I2
I367
I0
I57
tp45
tp46
sS'434445525354X838492939495'
p47
((lp48
(I9
I2
tp49
ag21
a(I2
I1071
I0
I53
tp50
tp51
sS'444552535463X828384939495'
p52
((lp53
g21
a(I9
I2
tp54
a(I2
I1617
I0
I52
tp55
tp56
sS'434452535473X828384939495'
p57
((lp58
g21
a(I6
I4
tp59
a(I4
I2
tp60
a(I6
I2
tp61
a(I2
I437
I0
I57
tp62
tp63
sS'527300000000X355592000000'
p64
((lp65
g44
ag27
a(I2
I211
I0
I22
tp66
tp67
sS'637300000000X135592000000'
p68
((lp69
g28
a(I0
I3
tp70
a(I1
I18
I0
I0
tp71
tp72
sS'434453546396X840000000000'
p73
((lp74
(I9
I4
tp75
a(I7
I4
tp76
a(I5
I2
tp77
a(I3
I4
tp78
a(I2
I253
I0
I22
tp79
tp80
sS'434445525463X828384939495'
p81
((lp82
(I9
I5
tp83
a(I7
I3
tp84
a(I5
I3
tp85
a(I3
I3
tp86
a(I5
I5
tp87
a(I3
I5
tp88
a(I2
I871
I0
I58
tp89
tp90
sssI3
(dp91
g2
(dp92
sg4
(dp93
ss.