(dp0
I1
(dp1
S'north'
p2
(dp3
sS'south'
p4
(dp5
ssI2
(dp6
g2
(dp7
sg4
(dp8
S'838492939495f424445535465'
p9
((lp10
(I9
I3
tp11
a(I7
I5
tp12
a(I5
I5
tp13
a(I3
I3
tp14
a(I5
I1
tp15
a(I2
I1145
I0
I60
tp16
tp17
sS'358384929394f4244'
p18
((lp19
(I3
I5
tp20
a(I5
I3
tp21
a(I3
I1
tp22
a(I1
I57
I0
I0
tp23
tp24
sS'748283848593f424445525354'
p25
((lp26
(I8
I3
tp27
a(I6
I5
tp28
a(I4
I3
tp29
a(I4
I1
tp30
a(I2
I435
I0
I59
tp31
tp32
sS'358384929394f4264'
p33
((lp34
(I9
I3
tp35
a(I7
I5
tp36
a(I5
I3
tp37
a(I3
I1
tp38
a(I1
I41
I0
I0
tp39
tp40
sS'73748284f304345'
p41
((lp42
(I8
I2
tp43
a(I6
I4
tp44
a(I2
I164
I0
I32
tp45
tp46
sS'738283848594f424344455355'
p47
((lp48
(I9
I4
tp49
a(I7
I2
tp50
a(I7
I4
tp51
a(I2
I1137
I0
I53
tp52
tp53
sS'518384929495f455462'
p54
((lp55
(I9
I4
tp56
a(I7
I2
tp57
a(I5
I2
tp58
a(I5
I0
tp59
a(I2
I677
I0
I60
tp60
tp61
sS'505183849295f4553'
p62
((lp63
g59
a(I5
I2
tp64
a(I5
I4
tp65
a(I3
I6
tp66
a(I1
I51
I0
I0
tp67
tp68
sS'828384939495f424344455354'
p69
((lp70
(I9
I5
tp71
a(I7
I3
tp72
a(I2
I1001
I0
I52
tp73
tp74
sS'838492939495f424344455463'
p75
((lp76
(I9
I5
tp77
a(I7
I3
tp78
a(I5
I3
tp79
a(I3
I3
tp80
a(I5
I5
tp81
ag20
a(I2
I997
I0
I70
tp82
tp83
sS'738283848593f424344455354'
p84
((lp85
(I9
I3
tp86
ag49
a(I2
I1096
I0
I39
tp87
tp88
sS'13335484f71'
p89
((lp90
(I1
I3
tp91
a(I0
I3
tp92
a(I1
I26
I0
I0
tp93
tp94
sS'738283849394f344244535456'
p95
((lp96
(I8
I3
tp97
a(I6
I3
tp98
a(I4
I3
tp99
a(I4
I5
tp100
a(I2
I3
tp101
a(I2
I280
I0
I56
tp102
tp103
sS'737482838485f424344455354'
p104
((lp105
g72
a(I7
I5
tp106
a(I9
I3
tp107
a(I2
I1498
I0
I52
tp108
tp109
sS'7482848593f30444553'
p110
((lp111
(I8
I5
tp112
a(I6
I3
tp113
a(I4
I3
tp114
a(I2
I318
I0
I48
tp115
tp116
sS'358384929394f4255'
p117
((lp118
g20
a(I2
I4
tp119
a(I2
I321
I0
I53
tp120
tp121
sS'247483849394f4244'
p122
((lp123
g119
a(I1
I3
tp124
a(I2
I277
I0
I51
tp125
tp126
sS'234051576694f43'
p127
((lp128
g101
a(I1
I3
tp129
a(I2
I160
I0
I37
tp130
tp131
sS'248384929394f4245'
p132
((lp133
(I9
I2
tp134
a(I7
I4
tp135
a(I2
I242
I0
I54
tp136
tp137
sS'738283849394f424344455355'
p138
((lp139
(I9
I4
tp140
ag112
a(I2
I1367
I0
I49
tp141
tp142
sS'235762667394f45'
p143
((lp144
(I7
I3
tp145
a(I5
I1
tp146
a(I2
I240
I0
I43
tp147
tp148
sS'22335484f61'
p149
((lp150
(I2
I2
tp151
ag91
a(I2
I154
I0
I26
tp152
tp153
sS'828384939495f344244535455'
p154
((lp155
(I9
I5
tp156
ag145
a(I2
I850
I0
I54
tp157
tp158
sS'137483849394f4245'
p159
((lp160
g124
a(I0
I3
tp161
a(I1
I51
I0
I0
tp162
tp163
sS'74828493f304245'
p164
((lp165
g107
a(I7
I5
tp166
a(I7
I3
tp167
a(I2
I206
I0
I31
tp168
tp169
sS'237382849394f425455'
p170
((lp171
(I8
I2
tp172
a(I6
I4
tp173
a(I4
I4
tp174
a(I6
I6
tp175
a(I2
I368
I0
I51
tp176
tp177
sS'235157626694f44'
p178
((lp179
(I6
I2
tp180
a(I4
I0
tp181
a(I2
I178
I0
I40
tp182
tp183
sS'134051576694f44'
p184
((lp185
g129
a(I0
I3
tp186
a(I1
I34
I0
I0
tp187
tp188
sS'33647484f41'
p189
((lp190
g51
a(I5
I4
tp191
a(I2
I109
I0
I28
tp192
tp193
sS'748283848593f424344455355'
p194
((lp195
g107
a(I7
I3
tp196
a(I2
I1164
I0
I51
tp197
tp198
sS'838492939495f424344455355'
p199
((lp200
g134
a(I8
I2
tp201
a(I2
I848
I0
I53
tp202
tp203
sS'33546484f51'
p204
((lp205
g44
a(I4
I4
tp206
ag151
a(I2
I114
I0
I30
tp207
tp208
sS'64737484f303445'
p209
((lp210
g167
a(I5
I5
tp211
a(I3
I5
tp212
a(I3
I3
tp213
a(I2
I133
I0
I32
tp214
tp215
sS'235766738494f44'
p216
((lp217
(I8
I4
tp218
ag180
a(I2
I201
I0
I47
tp219
tp220
sS'236673849394f43'
p221
((lp222
g11
a(I7
I5
tp223
a(I5
I7
tp224
a(I2
I153
I0
I48
tp225
tp226
sS'838492939495f344244455354'
p227
((lp228
(I9
I2
tp229
ag172
a(I2
I1041
I0
I53
tp230
tp231
sssI3
(dp232
g2
(dp233
sg4
(dp234
S'358384929394f4253'
p235
((lp236
(I9
I2
tp237
a(I7
I4
tp238
a(I3
I7406
I77
I54
tp239
tp240
sS'838492939495f424445525354'
p241
((lp242
g237
a(I8
I2
tp243
a(I3
I38405
I1448
I53
tp244
tp245
sS'838492939495f424344455463'
p246
((lp247
(I9
I5
tp248
a(I7
I3
tp249
a(I5
I3
tp250
a(I3
I3
tp251
a(I5
I5
tp252
a(I3
I5
tp253
a(I3
I61731
I1279
I68
tp254
tp255
sS'828384939495f424452535455'
p256
((lp257
(I9
I5
tp258
a(I7
I3
tp259
a(I3
I18052
I346
I53
tp260
tp261
sS'444663739394f97'
p262
((lp263
(I7
I3
tp264
a(I5
I3
tp265
a(I3
I5
tp266
a(I3
I6614
I81
I50
tp267
tp268
sS'828384939495f434452535455'
p269
((lp270
g258
ag264
a(I3
I26804
I869
I51
tp271
tp272
sS'466373829394f5387'
p273
((lp274
(I8
I2
tp275
a(I6
I4
tp276
a(I6
I2
tp277
a(I4
I4
tp278
a(I3
I6853
I55
I58
tp279
tp280
sS'358384929394f4264'
p281
((lp282
(I9
I3
tp283
a(I7
I5
tp284
a(I5
I3
tp285
a(I3
I1
tp286
a(I1
I49
I0
I0
tp287
tp288
sS'738283849394f425253545564'
p289
((lp290
(I8
I3
tp291
a(I6
I3
tp292
a(I4
I1
tp293
a(I4
I3
tp294
a(I6
I5
tp295
a(I4
I5
tp296
a(I3
I6853
I156
I51
tp297
tp298
sS'738283849394f435253545566'
p299
((lp300
(I8
I4
tp301
a(I6
I2
tp302
a(I4
I2
tp303
a(I4
I4
tp304
a(I6
I4
tp305
a(I4
I6
tp306
a(I3
I22095
I561
I60
tp307
tp308
sS'354446639394fa7'
p309
((lp310
(I9
I3
tp311
a(I8
I3
tp312
a(I3
I5475
I49
I47
tp313
tp314
sS'354446638394fb6'
p315
((lp316
g306
a(I2
I4
tp317
a(I3
I6635
I106
I52
tp318
tp319
sS'243544638394fc5'
p320
((lp321
g266
a(I1
I3
tp322
a(I2
I10343
I121
I55
tp323
tp324
sS'357483849394f4254'
p325
((lp326
(I8
I3
tp327
a(I6
I5
tp328
a(I4
I3
tp329
a(I4
I1
tp330
a(I1
I18
I0
I0
tp331
tp332
sS'457382849394f6475'
p333
((lp334
g301
a(I6
I6
tp335
a(I3
I800
I34
I1
tp336
tp337
sS'467382839394f5377'
p338
((lp339
(I8
I3
tp340
a(I6
I3
tp341
a(I3
I12152
I90
I56
tp342
tp343
sS'838492939495f424344535455'
p344
((lp345
g237
ag275
a(I3
I32653
I1100
I54
tp346
tp347
sS'456673829394f74'
p348
((lp349
g243
a(I6
I4
tp350
a(I8
I4
tp351
a(I1
I5
I0
I0
tp352
tp353
sss.