(dp0
I1
(dp1
S'north'
p2
(dp3
S'93f434445535484'
p4
((lp5
(I8
I4
tp6
a(I10
I2
tp7
a(I1
I56
I0
I0
tp8
tp9
sS'758384929495f434445535464'
p10
((lp11
(I4
I5
tp12
a(I6
I3
tp13
a(I6
I5
tp14
a(I8
I5
tp15
a(I10
I3
tp16
a(I8
I1
tp17
a(I1
I79
I0
I0
tp18
tp19
sS'8085f4344546493'
p20
((lp21
(I5
I4
tp22
a(I7
I4
tp23
a(I9
I6
tp24
a(I1
I44
I0
I0
tp25
tp26
sS'748392939495f434445535464'
p27
((lp28
(I6
I4
tp29
a(I8
I4
tp30
a(I8
I2
tp31
a(I10
I4
tp32
a(I8
I6
tp33
a(I1
I80
I0
I0
tp34
tp35
sS'808395f4344535464'
p36
((lp37
(I5
I3
tp38
a(I3
I3
tp39
a(I5
I5
tp40
a(I7
I3
tp41
a(I9
I3
tp42
a(I1
I53
I0
I0
tp43
tp44
sS'8592f434445535486'
p45
((lp46
g33
ag6
a(I1
I58
I0
I0
tp47
tp48
sS'838492939495f424344455354'
p49
((lp50
(I4
I2
tp51
ag29
a(I1
I59
I0
I0
tp52
tp53
ssS'south'
p54
(dp55
S'838492939495f424344455254'
p56
((lp57
(I9
I2
tp58
a(I7
I4
tp59
a(I1
I59
I0
I0
tp60
tp61
sS'838492939495f424344455463'
p62
((lp63
(I9
I5
tp64
a(I7
I3
tp65
a(I5
I3
tp66
a(I3
I3
tp67
a(I5
I5
tp68
a(I3
I5
tp69
a(I1
I79
I0
I0
tp70
tp71
sssI2
(dp72
g2
(dp73
S'8687f43455254b2c2'
p74
((lp75
(I12
I2
tp76
a(I13
I3
tp77
a(I1
I46
I0
I0
tp78
tp79
sS'7483f5253548687a5'
p80
((lp81
(I8
I7
tp82
a(I8
I5
tp83
a(I6
I3
tp84
a(I2
I292
I0
I43
tp85
tp86
sS'738492939495f434445525354'
p87
((lp88
(I4
I5
tp89
a(I6
I3
tp90
a(I8
I3
tp91
a(I8
I5
tp92
a(I10
I3
tp93
a(I8
I1
tp94
a(I2
I534
I0
I70
tp95
tp96
sS'738384929394f434445525354'
p97
((lp98
(I4
I4
tp99
a(I4
I2
tp100
a(I6
I4
tp101
a(I8
I2
tp102
a(I10
I2
tp103
a(I2
I838
I0
I59
tp104
tp105
sS'8495f4345525482a2'
p106
((lp107
(I8
I2
tp108
a(I9
I2
tp109
a(I2
I600
I0
I42
tp110
tp111
sS'73838494f4345525354a2'
p112
((lp113
(I5
I3
tp114
a(I4
I4
tp115
a(I2
I1362
I0
I45
tp116
tp117
sS'8486f4345525492a2'
p118
((lp119
g109
a(I11
I2
tp120
a(I2
I222
I0
I42
tp121
tp122
sS'84f5253546386a5'
p123
((lp124
(I5
I3
tp125
a(I7
I3
tp126
a(I9
I5
tp127
a(I1
I9
I0
I0
tp128
tp129
sS'75838492f4344525354a5'
p130
((lp131
(I4
I4
tp132
a(I4
I2
tp133
a(I6
I4
tp134
a(I8
I6
tp135
a(I2
I772
I0
I54
tp136
tp137
sS'8586f43455254a2b2'
p138
((lp139
g103
ag76
a(I2
I189
I0
I43
tp140
tp141
sS'63738494f4344455254a2'
p142
((lp143
g115
a(I4
I2
tp144
a(I6
I2
tp145
a(I6
I4
tp146
ag108
a(I2
I464
I0
I48
tp147
tp148
sS'838492939495f424344455354'
p149
((lp150
(I4
I2
tp151
a(I5
I2
tp152
a(I2
I697
I0
I52
tp153
tp154
sS'748384929395f434445525354'
p155
((lp156
(I4
I5
tp157
a(I6
I3
tp158
a(I8
I5
tp159
a(I10
I5
tp160
a(I2
I620
I0
I55
tp161
tp162
sS'748392f4352535486a5'
p163
((lp164
(I4
I3
tp165
a(I6
I3
tp166
a(I8
I5
tp167
ag82
a(I2
I322
I0
I44
tp168
tp169
ssg54
(dp170
S'838492939495f424445535463'
p171
((lp172
(I9
I2
tp173
a(I7
I4
tp174
a(I5
I2
tp175
a(I3
I2
tp176
a(I2
I1330
I0
I55
tp177
tp178
sS'838492939495f424445535465'
p179
((lp180
(I9
I3
tp181
a(I7
I5
tp182
a(I5
I5
tp183
a(I3
I3
tp184
a(I5
I1
tp185
a(I2
I1145
I0
I60
tp186
tp187
sS'358384929394f4264'
p188
((lp189
(I9
I3
tp190
a(I7
I5
tp191
a(I5
I3
tp192
a(I3
I1
tp193
a(I1
I41
I0
I0
tp194
tp195
sS'248384929495f4263'
p196
((lp197
(I9
I2
tp198
a(I7
I4
tp199
a(I5
I2
tp200
a(I3
I2
tp201
a(I1
I28
I0
I0
tp202
tp203
sS'33434594f77'
p204
((lp205
(I4
I3
tp206
a(I2
I3
tp207
a(I2
I116
I0
I29
tp208
tp209
sS'23334594f87'
p210
((lp211
(I3
I3
tp212
a(I1
I3
tp213
a(I2
I115
I0
I29
tp214
tp215
sS'7383849294f26535463'
p216
((lp217
(I8
I4
tp218
a(I6
I2
tp219
a(I4
I4
tp220
a(I6
I4
tp221
a(I2
I248
I0
I55
tp222
tp223
sS'56637394f37'
p224
((lp225
(I7
I3
tp226
a(I5
I3
tp227
a(I2
I98
I0
I30
tp228
tp229
sS'8384929394f26435354'
p230
((lp231
(I9
I3
tp232
ag226
a(I2
I765
I0
I45
tp233
tp234
sS'838492939495f424344455464'
p235
((lp236
(I9
I3
tp237
a(I7
I5
tp238
a(I5
I3
tp239
a(I3
I3
tp240
a(I5
I5
tp241
a(I3
I5
tp242
a(I2
I1271
I0
I67
tp243
tp244
sS'838492939495f424344455463'
p245
((lp246
(I9
I5
tp247
a(I7
I3
tp248
a(I5
I3
tp249
a(I3
I3
tp250
a(I5
I5
tp251
a(I3
I5
tp252
a(I2
I997
I0
I70
tp253
tp254
sS'358384929495f4253'
p255
((lp256
g242
a(I2
I4
tp257
a(I2
I511
I0
I52
tp258
tp259
sS'45536394f57'
p260
((lp261
(I6
I3
tp262
ag206
a(I2
I89
I0
I29
tp263
tp264
sS'73839294f2665'
p265
((lp266
(I9
I2
tp267
a(I7
I4
tp268
a(I5
I6
tp269
a(I2
I149
I0
I34
tp270
tp271
sS'358384929394f4253'
p272
((lp273
g252
a(I2
I4
tp274
a(I2
I469
I0
I53
tp275
tp276
sS'838492939495f434445535464'
p277
((lp278
g64
a(I7
I3
tp279
a(I5
I5
tp280
a(I3
I5
tp281
a(I2
I1249
I0
I55
tp282
tp283
sS'13234594f97'
p284
((lp285
g207
a(I0
I3
tp286
a(I1
I19
I0
I0
tp287
tp288
sS'838492939495f434445525354'
p289
((lp290
(I9
I2
tp291
a(I8
I2
tp292
a(I2
I1071
I0
I53
tp293
tp294
sS'838492939495f424344455455'
p295
((lp296
g291
a(I8
I2
tp297
a(I2
I1259
I0
I53
tp298
tp299
sS'828384939495f424345545564'
p300
((lp301
(I9
I3
tp302
a(I7
I5
tp303
a(I5
I3
tp304
a(I3
I3
tp305
a(I5
I1
tp306
a(I2
I1298
I0
I55
tp307
tp308
sS'56738394f36'
p309
((lp310
(I8
I3
tp311
ag262
a(I2
I120
I0
I32
tp312
tp313
sS'43455394f67'
p314
((lp315
g227
ag212
a(I2
I95
I0
I29
tp316
tp317
sS'53566394f47'
p318
((lp319
g269
a(I4
I5
tp320
a(I2
I124
I0
I29
tp321
tp322
sssI3
(dp323
g2
(dp324
S'62748393f445463a5'
p325
((lp326
(I4
I4
tp327
a(I6
I4
tp328
a(I8
I4
tp329
a(I8
I2
tp330
a(I10
I4
tp331
a(I3
I6851
I372
I36
tp332
tp333
sS'416373f33c2'
p334
((lp335
(I12
I2
tp336
a(I13
I3
tp337
a(I1
I14
I0
I0
tp338
tp339
sS'748394b1f4352535463'
p340
((lp341
(I5
I3
tp342
a(I7
I3
tp343
a(I9
I3
tp344
a(I9
I5
tp345
a(I3
I12912
I308
I34
tp346
tp347
sS'74838493f4445525354a5'
p348
((lp349
g157
a(I4
I3
tp350
a(I6
I3
tp351
a(I3
I28436
I528
I58
tp352
tp353
sS'758384929495f434445525354'
p354
((lp355
(I4
I3
tp356
a(I6
I5
tp357
a(I8
I5
tp358
a(I10
I3
tp359
a(I8
I1
tp360
a(I3
I53968
I1302
I59
tp361
tp362
sS'738384929394f434445525354'
p363
((lp364
(I4
I4
tp365
a(I4
I2
tp366
a(I6
I4
tp367
a(I8
I2
tp368
a(I10
I2
tp369
a(I3
I41014
I968
I60
tp370
tp371
sS'748392939495f434445525354'
p372
((lp373
g99
a(I4
I2
tp374
a(I6
I4
tp375
a(I8
I4
tp376
a(I8
I2
tp377
a(I10
I4
tp378
a(I8
I6
tp379
a(I3
I17955
I443
I70
tp380
tp381
sS'73838494f4345525354a2'
p382
((lp383
(I4
I5
tp384
a(I6
I3
tp385
a(I3
I25269
I722
I46
tp386
tp387
sS'a2f52546395a5'
p388
((lp389
g345
a(I11
I5
tp390
a(I3
I4587
I79
I29
tp391
tp392
sS'24fb4c4'
p393
((lp394
(I11
I4
tp395
a(I13
I4
tp396
a(I1
I8
I0
I0
tp397
tp398
sS'75b1f4352546395'
p399
((lp400
(I4
I3
tp401
a(I6
I5
tp402
a(I8
I5
tp403
a(I10
I5
tp404
a(I3
I8819
I139
I36
tp405
tp406
sS'417383f33b2'
p407
((lp408
(I11
I2
tp409
ag336
a(I3
I1847
I162
I9
tp410
tp411
sS'44fa4a5'
p412
((lp413
(I10
I5
tp414
ag395
a(I3
I426
I14
I14
tp415
tp416
sS'42738394f5253a2'
p417
((lp418
(I5
I3
tp419
a(I5
I1
tp420
a(I3
I3
tp421
a(I3
I4789
I350
I23
tp422
tp423
sS'417394f33a2'
p424
((lp425
g369
ag409
a(I3
I2001
I149
I12
tp426
tp427
sS'838494b1f4345525354'
p428
((lp429
(I4
I5
tp430
a(I6
I3
tp431
a(I3
I7945
I202
I36
tp432
tp433
sS'838492939495f424344455354'
p434
((lp435
(I4
I2
tp436
a(I5
I2
tp437
a(I3
I24013
I539
I52
tp438
tp439
sS'82f525463b5c5'
p440
((lp441
(I5
I4
tp442
a(I7
I2
tp443
a(I9
I2
tp444
a(I1
I8
I0
I0
tp445
tp446
sS'92f525463a5b5'
p447
((lp448
g404
a(I12
I5
tp449
a(I3
I3569
I82
I26
tp450
tp451
sS'748384939495f434445525354'
p452
((lp453
g165
a(I6
I3
tp454
a(I8
I5
tp455
ag414
a(I3
I45513
I1216
I57
tp456
tp457
sS'34fa4b4'
p458
((lp459
g331
a(I12
I4
tp460
a(I3
I368
I30
I3
tp461
tp462
ssg54
(dp463
S'838492939495f424445525354'
p464
((lp465
(I9
I2
tp466
a(I8
I2
tp467
a(I3
I38405
I1448
I53
tp468
tp469
sS'328384939495f44535465'
p470
((lp471
(I9
I3
tp472
a(I7
I5
tp473
a(I5
I5
tp474
a(I3
I3
tp475
a(I3
I8387
I139
I59
tp476
tp477
sS'838492939495f424344455254'
p478
((lp479
g291
a(I8
I2
tp480
a(I3
I17977
I461
I54
tp481
tp482
sS'3363838494f46'
p483
((lp484
(I9
I4
tp485
a(I7
I2
tp486
a(I5
I4
tp487
a(I3
I5101
I63
I40
tp488
tp489
sS'213173828494f465666'
p490
((lp491
(I2
I1
tp492
a(I1
I2
tp493
a(I3
I7438
I130
I40
tp494
tp495
sS'318283849394f455261'
p496
((lp497
g302
a(I7
I1
tp498
a(I5
I1
tp499
a(I5
I3
tp500
a(I3
I16274
I181
I58
tp501
tp502
sS'3374838494f36'
p503
((lp504
(I7
I4
tp505
a(I6
I3
tp506
a(I3
I3750
I37
I34
tp507
tp508
sS'538283849394f4244455255'
p509
((lp510
(I5
I3
tp511
a(I3
I1
tp512
a(I3
I54617
I1267
I51
tp513
tp514
sS'3383849294f26'
p515
((lp516
(I9
I2
tp517
ag505
a(I3
I2980
I14
I37
tp518
tp519
sS'323383849495f5364'
p520
((lp521
(I9
I4
tp522
a(I7
I4
tp523
a(I5
I4
tp524
a(I5
I2
tp525
a(I1
I5
I0
I0
tp526
tp527
sS'828384939495f424345525464'
p528
((lp529
(I9
I5
tp530
a(I7
I3
tp531
a(I5
I5
tp532
a(I5
I3
tp533
a(I3
I1
tp534
a(I3
I58498
I1421
I68
tp535
tp536
sS'838492939495f434445535464'
p537
((lp538
(I9
I5
tp539
a(I7
I3
tp540
a(I5
I5
tp541
a(I3
I5
tp542
a(I3
I63154
I1537
I56
tp543
tp544
sS'8384929394f15435464'
p545
((lp546
g472
a(I7
I3
tp547
a(I5
I5
tp548
a(I5
I3
tp549
a(I3
I3
tp550
a(I3
I33479
I677
I49
tp551
tp552
sS'315382838494f55'
p553
((lp554
(I9
I4
tp555
a(I7
I4
tp556
a(I3
I4614
I65
I47
tp557
tp558
sS'123173828494f465675'
p559
((lp560
g493
a(I0
I3
tp561
a(I1
I47
I0
I0
tp562
tp563
sS'838492939495f424344535463'
p564
((lp565
(I9
I2
tp566
a(I7
I4
tp567
a(I5
I2
tp568
a(I3
I2
tp569
a(I3
I60900
I1501
I57
tp570
tp571
sS'315374828384f66'
p572
((lp573
(I8
I3
tp574
a(I6
I5
tp575
a(I6
I7
tp576
a(I1
I20
I0
I0
tp577
tp578
sS'3354638384f56'
p579
((lp580
g506
a(I4
I5
tp581
a(I6
I7
tp582
a(I1
I29
I0
I0
tp583
tp584
sS'318283849394f45465255'
p585
((lp586
(I9
I3
tp587
a(I7
I3
tp588
a(I3
I13577
I232
I52
tp589
tp590
sS'317382838494f46525556'
p591
((lp592
(I8
I3
tp593
a(I6
I3
tp594
a(I4
I1
tp595
ag492
a(I3
I18445
I382
I53
tp596
tp597
sS'358384929394f43535464'
p598
((lp599
g542
a(I2
I4
tp600
a(I3
I39635
I968
I53
tp601
tp602
sS'828384939495f424445525463'
p603
((lp604
(I9
I5
tp605
a(I7
I3
tp606
ag511
a(I3
I38829
I841
I62
tp607
tp608
sss.