(dp0
I1
(dp1
S'north'
p2
(dp3
S'838492939495f424344455354'
p4
((lp5
(I4
I2
tp6
a(I6
I4
tp7
a(I1
I59
I0
I0
tp8
tp9
ssS'south'
p10
(dp11
S'838492939495f424344455463'
p12
((lp13
(I9
I5
tp14
a(I7
I3
tp15
a(I5
I3
tp16
a(I3
I3
tp17
a(I5
I5
tp18
a(I3
I5
tp19
a(I1
I79
I0
I0
tp20
tp21
sssI2
(dp22
g2
(dp23
S'7483f5253548687a5'
p24
((lp25
(I8
I7
tp26
a(I8
I5
tp27
a(I6
I3
tp28
a(I2
I292
I0
I43
tp29
tp30
sS'738492939495f434445525354'
p31
((lp32
(I4
I5
tp33
a(I6
I3
tp34
a(I8
I3
tp35
a(I8
I5
tp36
a(I10
I3
tp37
a(I8
I1
tp38
a(I2
I534
I0
I70
tp39
tp40
sS'84f5253546386a5'
p41
((lp42
(I5
I3
tp43
a(I7
I3
tp44
a(I9
I5
tp45
a(I1
I9
I0
I0
tp46
tp47
sS'75838492f4344525354a5'
p48
((lp49
(I4
I4
tp50
a(I4
I2
tp51
a(I6
I4
tp52
a(I8
I6
tp53
a(I2
I772
I0
I54
tp54
tp55
sS'838492939495f424344455354'
p56
((lp57
(I4
I2
tp58
a(I5
I2
tp59
a(I2
I697
I0
I52
tp60
tp61
sS'748384929395f434445525354'
p62
((lp63
(I4
I5
tp64
a(I6
I3
tp65
a(I8
I5
tp66
a(I10
I5
tp67
a(I2
I620
I0
I55
tp68
tp69
sS'748392f4352535486a5'
p70
((lp71
(I4
I3
tp72
a(I6
I3
tp73
a(I8
I5
tp74
ag26
a(I2
I322
I0
I44
tp75
tp76
ssg10
(dp77
S'838492939495f424445535463'
p78
((lp79
(I9
I2
tp80
a(I7
I4
tp81
a(I5
I2
tp82
a(I3
I2
tp83
a(I2
I1330
I0
I55
tp84
tp85
sS'838492939495f424445535465'
p86
((lp87
(I9
I3
tp88
a(I7
I5
tp89
a(I5
I5
tp90
a(I3
I3
tp91
a(I5
I1
tp92
a(I2
I1145
I0
I60
tp93
tp94
sS'358384929394f4264'
p95
((lp96
(I9
I3
tp97
a(I7
I5
tp98
a(I5
I3
tp99
a(I3
I1
tp100
a(I1
I41
I0
I0
tp101
tp102
sS'248384929495f4263'
p103
((lp104
(I9
I2
tp105
a(I7
I4
tp106
a(I5
I2
tp107
a(I3
I2
tp108
a(I1
I28
I0
I0
tp109
tp110
sS'33434594f77'
p111
((lp112
(I4
I3
tp113
a(I2
I3
tp114
a(I2
I116
I0
I29
tp115
tp116
sS'23334594f87'
p117
((lp118
(I3
I3
tp119
a(I1
I3
tp120
a(I2
I115
I0
I29
tp121
tp122
sS'7383849294f26535463'
p123
((lp124
(I8
I4
tp125
a(I6
I2
tp126
a(I4
I4
tp127
a(I6
I4
tp128
a(I2
I248
I0
I55
tp129
tp130
sS'56637394f37'
p131
((lp132
(I7
I3
tp133
a(I5
I3
tp134
a(I2
I98
I0
I30
tp135
tp136
sS'8384929394f26435354'
p137
((lp138
(I9
I3
tp139
ag133
a(I2
I765
I0
I45
tp140
tp141
sS'838492939495f424344455464'
p142
((lp143
(I9
I3
tp144
a(I7
I5
tp145
a(I5
I3
tp146
a(I3
I3
tp147
a(I5
I5
tp148
a(I3
I5
tp149
a(I2
I1271
I0
I67
tp150
tp151
sS'838492939495f424344455463'
p152
((lp153
(I9
I5
tp154
a(I7
I3
tp155
a(I5
I3
tp156
a(I3
I3
tp157
a(I5
I5
tp158
a(I3
I5
tp159
a(I2
I997
I0
I70
tp160
tp161
sS'358384929495f4253'
p162
((lp163
g149
a(I2
I4
tp164
a(I2
I511
I0
I52
tp165
tp166
sS'45536394f57'
p167
((lp168
(I6
I3
tp169
ag113
a(I2
I89
I0
I29
tp170
tp171
sS'73839294f2665'
p172
((lp173
(I9
I2
tp174
a(I7
I4
tp175
a(I5
I6
tp176
a(I2
I149
I0
I34
tp177
tp178
sS'358384929394f4253'
p179
((lp180
g159
a(I2
I4
tp181
a(I2
I469
I0
I53
tp182
tp183
sS'838492939495f434445535464'
p184
((lp185
g14
a(I7
I3
tp186
a(I5
I5
tp187
a(I3
I5
tp188
a(I2
I1249
I0
I55
tp189
tp190
sS'13234594f97'
p191
((lp192
g114
a(I0
I3
tp193
a(I1
I19
I0
I0
tp194
tp195
sS'838492939495f434445525354'
p196
((lp197
(I9
I2
tp198
a(I8
I2
tp199
a(I2
I1071
I0
I53
tp200
tp201
sS'838492939495f424344455455'
p202
((lp203
g198
a(I8
I2
tp204
a(I2
I1259
I0
I53
tp205
tp206
sS'828384939495f424345545564'
p207
((lp208
(I9
I3
tp209
a(I7
I5
tp210
a(I5
I3
tp211
a(I3
I3
tp212
a(I5
I1
tp213
a(I2
I1298
I0
I55
tp214
tp215
sS'56738394f36'
p216
((lp217
(I8
I3
tp218
ag169
a(I2
I120
I0
I32
tp219
tp220
sS'43455394f67'
p221
((lp222
g134
ag119
a(I2
I95
I0
I29
tp223
tp224
sS'53566394f47'
p225
((lp226
g176
a(I4
I5
tp227
a(I2
I124
I0
I29
tp228
tp229
sssI3
(dp230
g2
(dp231
S'62748393f445463a5'
p232
((lp233
(I4
I4
tp234
a(I6
I4
tp235
a(I8
I4
tp236
a(I8
I2
tp237
a(I10
I4
tp238
a(I3
I6851
I372
I36
tp239
tp240
sS'416373f33c2'
p241
((lp242
(I12
I2
tp243
a(I13
I3
tp244
a(I1
I14
I0
I0
tp245
tp246
sS'74838493f4445525354a5'
p247
((lp248
g64
a(I4
I3
tp249
a(I6
I3
tp250
a(I3
I28436
I528
I58
tp251
tp252
sS'738384929394f434445525354'
p253
((lp254
(I4
I4
tp255
a(I4
I2
tp256
a(I6
I4
tp257
a(I8
I2
tp258
a(I10
I2
tp259
a(I3
I41014
I968
I60
tp260
tp261
sS'24fb4c4'
p262
((lp263
(I11
I4
tp264
a(I13
I4
tp265
a(I1
I8
I0
I0
tp266
tp267
sS'73838494f4345525354a2'
p268
((lp269
(I4
I5
tp270
a(I6
I3
tp271
a(I3
I25269
I722
I46
tp272
tp273
sS'417394f33a2'
p274
((lp275
g259
a(I11
I2
tp276
a(I3
I2001
I149
I12
tp277
tp278
sS'417383f33b2'
p279
((lp280
g276
ag243
a(I3
I1847
I162
I9
tp281
tp282
sS'748384939495f434445525354'
p283
((lp284
g72
a(I6
I3
tp285
a(I8
I5
tp286
a(I10
I5
tp287
a(I3
I45513
I1216
I57
tp288
tp289
sS'44fa4a5'
p290
((lp291
g287
ag264
a(I3
I426
I14
I14
tp292
tp293
sS'838492939495f424344455354'
p294
((lp295
(I4
I2
tp296
a(I5
I2
tp297
a(I3
I24013
I539
I52
tp298
tp299
sS'758384929495f434445525354'
p300
((lp301
(I4
I3
tp302
a(I6
I5
tp303
a(I8
I5
tp304
a(I10
I3
tp305
a(I8
I1
tp306
a(I3
I53968
I1302
I59
tp307
tp308
sS'34fa4b4'
p309
((lp310
g238
a(I12
I4
tp311
a(I3
I368
I30
I3
tp312
tp313
sS'42738394f5253a2'
p314
((lp315
(I5
I3
tp316
a(I5
I1
tp317
a(I3
I3
tp318
a(I3
I4789
I350
I23
tp319
tp320
ssg10
(dp321
S'3383849294f26'
p322
((lp323
(I9
I2
tp324
a(I7
I4
tp325
a(I3
I2980
I14
I37
tp326
tp327
sS'328384939495f44535465'
p328
((lp329
(I9
I3
tp330
a(I7
I5
tp331
a(I5
I5
tp332
a(I3
I3
tp333
a(I3
I8387
I139
I59
tp334
tp335
sS'838492939495f424344535463'
p336
((lp337
(I9
I2
tp338
a(I7
I4
tp339
a(I5
I2
tp340
a(I3
I2
tp341
a(I3
I60900
I1501
I57
tp342
tp343
sS'323383849495f5364'
p344
((lp345
(I9
I4
tp346
a(I7
I4
tp347
a(I5
I4
tp348
a(I5
I2
tp349
a(I1
I5
I0
I0
tp350
tp351
sS'318283849394f455261'
p352
((lp353
g209
a(I7
I1
tp354
a(I5
I1
tp355
a(I5
I3
tp356
a(I3
I16274
I181
I58
tp357
tp358
sS'315382838494f55'
p359
((lp360
(I9
I4
tp361
a(I7
I4
tp362
a(I3
I4614
I65
I47
tp363
tp364
sS'828384939495f424345525464'
p365
((lp366
(I9
I5
tp367
a(I7
I3
tp368
a(I5
I5
tp369
a(I5
I3
tp370
a(I3
I1
tp371
a(I3
I58498
I1421
I68
tp372
tp373
sS'315374828384f66'
p374
((lp375
(I8
I3
tp376
a(I6
I5
tp377
a(I6
I7
tp378
a(I1
I20
I0
I0
tp379
tp380
sS'3354638384f56'
p381
((lp382
(I6
I3
tp383
a(I4
I5
tp384
a(I6
I7
tp385
a(I1
I29
I0
I0
tp386
tp387
sS'838492939495f434445535464'
p388
((lp389
(I9
I5
tp390
a(I7
I3
tp391
a(I5
I5
tp392
a(I3
I5
tp393
a(I3
I63154
I1537
I56
tp394
tp395
sS'838492939495f424344455254'
p396
((lp397
g198
a(I8
I2
tp398
a(I3
I17977
I461
I54
tp399
tp400
sS'3363838494f46'
p401
((lp402
(I9
I4
tp403
a(I7
I2
tp404
a(I5
I4
tp405
a(I3
I5101
I63
I40
tp406
tp407
sS'8384929394f15435464'
p408
((lp409
g330
a(I7
I3
tp410
a(I5
I5
tp411
a(I5
I3
tp412
a(I3
I3
tp413
a(I3
I33479
I677
I49
tp414
tp415
sS'3374838494f36'
p416
((lp417
g325
ag383
a(I3
I3750
I37
I34
tp418
tp419
sS'358384929394f43535464'
p420
((lp421
g393
a(I2
I4
tp422
a(I3
I39635
I968
I53
tp423
tp424
sss.