(dp0
I1
(dp1
S'north'
p2
(dp3
S'3373b3f5685'
p4
((lp5
(I8
I5
tp6
a(I9
I4
tp7
a(I1
I17
I0
I0
tp8
tp9
sS'7384b3f535667'
p10
((lp11
(I6
I7
tp12
a(I7
I6
tp13
a(I1
I21
I0
I0
tp14
tp15
sS'8384b3f455356'
p16
((lp17
(I4
I5
tp18
ag12
a(I1
I25
I0
I0
tp19
tp20
sS'2373b3f5694'
p21
((lp22
g7
a(I10
I5
tp23
a(I1
I17
I0
I0
tp24
tp25
sS'4473b3f5676'
p26
((lp27
g13
ag6
a(I1
I17
I0
I0
tp28
tp29
sS'7483849394f43455356'
p30
((lp31
(I4
I3
tp32
a(I6
I3
tp33
a(I8
I5
tp34
a(I10
I3
tp35
a(I1
I38
I0
I0
tp36
tp37
sS'0373b3f56b5'
p38
((lp39
(ta(I0
I1
I0
I0
tp40
tp41
sS'838492939495f424344455354'
p42
((lp43
(I4
I2
tp44
a(I6
I4
tp45
a(I1
I59
I0
I0
tp46
tp47
sS'0473b3f56b5'
p48
((lp49
(ta(I0
I1
I0
I0
tp50
tp51
sS'338384929394f43455354'
p52
((lp53
(I5
I4
tp54
a(I3
I2
tp55
a(I3
I4
tp56
a(I5
I6
tp57
a(I1
I38
I0
I0
tp58
tp59
sS'1373b3f56a5'
p60
((lp61
g23
a(I11
I5
tp62
a(I1
I17
I0
I0
tp63
tp64
ssS'south'
p65
(dp66
S'4473b3f5685'
p67
((lp68
(I4
I4
tp69
a(I3
I3
tp70
a(I1
I25
I0
I0
tp71
tp72
sS'3373b3f5694'
p73
((lp74
g70
a(I2
I3
tp75
a(I1
I25
I0
I0
tp76
tp77
sS'838492939495f424344455463'
p78
((lp79
(I9
I5
tp80
a(I7
I3
tp81
a(I5
I3
tp82
a(I3
I3
tp83
a(I5
I5
tp84
a(I3
I5
tp85
a(I1
I79
I0
I0
tp86
tp87
sS'7384b3f535676'
p88
((lp89
(I8
I4
tp90
a(I6
I2
tp91
ag69
a(I1
I26
I0
I0
tp92
tp93
sS'8384929394f43455356'
p94
((lp95
(I9
I2
tp96
a(I7
I4
tp97
a(I1
I50
I0
I0
tp98
tp99
sS'1373b3f56b5'
p100
((lp101
(I1
I3
tp102
a(I0
I3
tp103
a(I1
I18
I0
I0
tp104
tp105
sS'838493f455356a3'
p106
((lp107
(I9
I3
tp108
a(I11
I3
tp109
a(I1
I28
I0
I0
tp110
tp111
sS'358384929394f4264'
p112
((lp113
(I9
I3
tp114
a(I7
I5
tp115
a(I5
I3
tp116
a(I3
I1
tp117
a(I1
I41
I0
I0
tp118
tp119
sS'8384b3f535667'
p120
((lp121
(I8
I3
tp122
a(I7
I3
tp123
a(I1
I25
I0
I0
tp124
tp125
sS'838492939495f434445535464'
p126
((lp127
(I9
I5
tp128
a(I7
I3
tp129
a(I5
I5
tp130
a(I3
I3
tp131
a(I1
I65
I0
I0
tp132
tp133
sS'0373b3f56b5'
p134
((lp135
g103
a(I0
I4
tp136
a(I1
I18
I0
I0
tp137
tp138
sS'2373b3f56a5'
p139
((lp140
g75
ag102
a(I1
I25
I0
I0
tp141
tp142
sS'838492939495f424344455354'
p143
((lp144
(I9
I2
tp145
a(I7
I4
tp146
a(I1
I59
I0
I0
tp147
tp148
sS'0473b3f56b5'
p149
((lp150
g136
a(I0
I3
tp151
a(I1
I18
I0
I0
tp152
tp153
sssI2
(dp154
g2
(dp155
S'678392939495f525354556364'
p156
((lp157
(I6
I3
tp158
a(I4
I3
tp159
a(I2
I1122
I0
I56
tp160
tp161
sS'148392939495f525354667787'
p162
((lp163
(I5
I2
tp164
a(I4
I1
tp165
a(I2
I1920
I0
I45
tp166
tp167
sS'478392939495f525354556364'
p168
((lp169
(I6
I4
tp170
a(I4
I4
tp171
a(I6
I6
tp172
a(I2
I816
I0
I55
tp173
tp174
sS'778392939495f435253545564'
p175
((lp176
(I4
I3
tp177
ag158
a(I2
I905
I0
I50
tp178
tp179
sS'828384939495f434445525354'
p180
((lp181
(I4
I5
tp182
a(I6
I3
tp183
a(I2
I499
I0
I53
tp184
tp185
sS'258392939495f525354636677'
p186
((lp187
(I6
I3
tp188
a(I4
I3
tp189
a(I6
I5
tp190
a(I6
I7
tp191
a(I8
I7
tp192
a(I2
I328
I0
I42
tp193
tp194
sS'838492939495f424344455354'
p195
((lp196
(I4
I2
tp197
ag164
a(I2
I697
I0
I52
tp198
tp199
sS'838492939495f434452535463'
p200
((lp201
(I4
I4
tp202
a(I5
I5
tp203
a(I2
I751
I0
I46
tp204
tp205
sS'368392939495f525354556366'
p206
((lp207
g203
a(I7
I7
tp208
a(I2
I357
I0
I51
tp209
tp210
sS'838692939495f435253545563'
p211
((lp212
(I6
I3
tp213
ag170
a(I2
I1117
I0
I38
tp214
tp215
sS'578392939495f435253545564'
p216
((lp217
g159
ag188
a(I2
I701
I0
I51
tp218
tp219
ssg65
(dp220
S'838492939495f424445525354'
p221
((lp222
(I9
I2
tp223
a(I8
I2
tp224
a(I2
I1042
I0
I53
tp225
tp226
sS'505183849295f4553'
p227
((lp228
(I5
I0
tp229
a(I5
I2
tp230
a(I5
I4
tp231
a(I3
I6
tp232
a(I1
I51
I0
I0
tp233
tp234
sS'358384929394f4244'
p235
((lp236
(I3
I5
tp237
a(I5
I3
tp238
a(I3
I1
tp239
a(I1
I57
I0
I0
tp240
tp241
sS'1525647483fa0'
p242
((lp243
(I1
I5
tp244
a(I0
I4
tp245
a(I1
I34
I0
I0
tp246
tp247
sS'678392939495f435253545564'
p248
((lp249
(I6
I7
tp250
a(I5
I7
tp251
a(I2
I938
I0
I39
tp252
tp253
sS'748283848593f424445525354'
p254
((lp255
(I8
I3
tp256
a(I6
I5
tp257
a(I4
I3
tp258
a(I4
I1
tp259
a(I2
I435
I0
I59
tp260
tp261
sS'7482838493f4043455354'
p262
((lp263
(I8
I4
tp264
a(I6
I4
tp265
a(I4
I2
tp266
a(I4
I4
tp267
a(I4
I6
tp268
a(I2
I498
I0
I45
tp269
tp270
sS'358384929394f4264'
p271
((lp272
(I9
I3
tp273
a(I7
I5
tp274
a(I5
I3
tp275
a(I3
I1
tp276
a(I1
I41
I0
I0
tp277
tp278
sS'358283849394f4452'
p279
((lp280
(I3
I5
tp281
a(I5
I3
tp282
a(I5
I1
tp283
a(I1
I57
I0
I0
tp284
tp285
sS'73748284f304345'
p286
((lp287
(I8
I2
tp288
a(I6
I4
tp289
a(I2
I164
I0
I32
tp290
tp291
sS'828384939495f434445525354'
p292
((lp293
(I9
I5
tp294
a(I7
I3
tp295
a(I2
I954
I0
I52
tp296
tp297
sS'838492939495f424344455254'
p298
((lp299
(I9
I2
tp300
a(I8
I2
tp301
a(I2
I857
I0
I53
tp302
tp303
sS'338384929394f42444565'
p304
((lp305
(I9
I3
tp306
a(I7
I5
tp307
a(I5
I5
tp308
a(I3
I5
tp309
a(I5
I3
tp310
a(I3
I1
tp311
a(I1
I46
I0
I0
tp312
tp313
sS'738283848594f424344455355'
p314
((lp315
(I9
I4
tp316
a(I7
I2
tp317
a(I7
I4
tp318
a(I2
I1137
I0
I53
tp319
tp320
sS'2564748393f4470'
p321
((lp322
(I9
I3
tp323
a(I7
I3
tp324
a(I7
I5
tp325
a(I5
I3
tp326
a(I3
I5
tp327
a(I1
I5
tp328
a(I2
I193
I0
I43
tp329
tp330
sS'518384929495f455462'
p331
((lp332
(I9
I4
tp333
a(I7
I2
tp334
a(I5
I2
tp335
ag229
a(I2
I677
I0
I60
tp336
tp337
sS'578392939495f525354556364'
p338
((lp339
g251
a(I4
I7
tp340
a(I2
I1027
I0
I38
tp341
tp342
sS'838492939495f424445535465'
p343
((lp344
(I9
I3
tp345
a(I7
I5
tp346
a(I5
I5
tp347
a(I3
I3
tp348
a(I5
I1
tp349
a(I2
I1145
I0
I60
tp350
tp351
sS'828384939495f424344455354'
p352
((lp353
(I9
I5
tp354
a(I7
I3
tp355
a(I2
I1001
I0
I52
tp356
tp357
sS'838492939495f424344455463'
p358
((lp359
(I9
I5
tp360
a(I7
I3
tp361
a(I5
I3
tp362
a(I3
I3
tp363
a(I5
I5
tp364
ag237
a(I2
I997
I0
I70
tp365
tp366
sS'738283848593f424344455354'
p367
((lp368
(I9
I3
tp369
ag316
a(I2
I1096
I0
I39
tp370
tp371
sS'748283848593f434445525354'
p372
((lp373
(I8
I5
tp374
a(I6
I3
tp375
a(I4
I1
tp376
a(I2
I1334
I0
I54
tp377
tp378
sS'738283848594f334244525354'
p379
((lp380
(I8
I3
tp381
a(I6
I3
tp382
a(I4
I1
tp383
a(I4
I3
tp384
a(I2
I3
tp385
a(I2
I323
I0
I57
tp386
tp387
sS'64737484f303445'
p388
((lp389
(I7
I3
tp390
a(I5
I5
tp391
a(I3
I5
tp392
a(I3
I3
tp393
a(I2
I133
I0
I32
tp394
tp395
sS'478392939495f525354556366'
p396
((lp397
g340
a(I3
I6
tp398
a(I2
I675
I0
I42
tp399
tp400
sS'828384939495f444552535463'
p401
((lp402
(I8
I2
tp403
a(I9
I2
tp404
a(I2
I1617
I0
I52
tp405
tp406
sS'13335484f71'
p407
((lp408
(I1
I3
tp409
a(I0
I3
tp410
a(I1
I26
I0
I0
tp411
tp412
sS'33647484f41'
p413
((lp414
g318
a(I5
I4
tp415
a(I2
I109
I0
I28
tp416
tp417
sS'738283848594f434445525354'
p418
((lp419
g316
a(I7
I2
tp420
a(I7
I4
tp421
a(I2
I1391
I0
I56
tp422
tp423
sS'738283849394f344244535456'
p424
((lp425
(I8
I3
tp426
a(I6
I3
tp427
a(I4
I3
tp428
a(I4
I5
tp429
a(I2
I3
tp430
a(I2
I280
I0
I56
tp431
tp432
sS'2574828393f4460'
p433
((lp434
g403
a(I8
I4
tp435
a(I6
I4
tp436
a(I2
I223
I0
I41
tp437
tp438
sS'7482848593f30444553'
p439
((lp440
(I8
I5
tp441
a(I6
I3
tp442
a(I4
I3
tp443
a(I2
I318
I0
I48
tp444
tp445
sS'828384939495f434445525463'
p446
((lp447
(I9
I5
tp448
a(I7
I3
tp449
a(I5
I3
tp450
a(I3
I3
tp451
a(I5
I5
tp452
ag281
a(I2
I871
I0
I58
tp453
tp454
sS'538384929394f4243444555'
p455
((lp456
g362
a(I3
I3
tp457
a(I5
I1
tp458
a(I2
I934
I0
I51
tp459
tp460
sS'838492939495f444552536372'
p461
((lp462
(I8
I4
tp463
a(I8
I2
tp464
a(I6
I2
tp465
a(I4
I2
tp466
a(I6
I4
tp467
a(I2
I976
I0
I62
tp468
tp469
sS'8392939495f444565'
p470
((lp471
g404
a(I7
I4
tp472
a(I5
I6
tp473
a(I3
I4
tp474
a(I5
I4
tp475
a(I1
I40
I0
I0
tp476
tp477
sS'738283849394f424345525354'
p478
((lp479
(I9
I4
tp480
a(I8
I5
tp481
a(I2
I1506
I0
I52
tp482
tp483
sS'248384929394f4264'
p484
((lp485
(I9
I3
tp486
a(I7
I5
tp487
a(I5
I3
tp488
a(I3
I1
tp489
a(I1
I41
I0
I0
tp490
tp491
sS'737482838485f424344455354'
p492
((lp493
g355
a(I7
I5
tp494
ag323
a(I2
I1498
I0
I52
tp495
tp496
sS'234051576694f43'
p497
((lp498
g430
a(I1
I3
tp499
a(I2
I160
I0
I37
tp500
tp501
sS'248384929394f4245'
p502
((lp503
(I9
I2
tp504
a(I7
I4
tp505
a(I2
I242
I0
I54
tp506
tp507
sS'738283849394f424344455355'
p508
((lp509
(I9
I4
tp510
ag441
a(I2
I1367
I0
I49
tp511
tp512
sS'2535647483f90'
p513
((lp514
(I3
I5
tp515
ag244
a(I2
I152
I0
I35
tp516
tp517
sS'828384939495f424344455253'
p518
((lp519
(I9
I5
tp520
a(I7
I3
tp521
a(I2
I1169
I0
I52
tp522
tp523
sS'828384939495f434452535463'
p524
((lp525
g403
a(I9
I2
tp526
a(I2
I1315
I0
I52
tp527
tp528
sS'235762667394f45'
p529
((lp530
(I7
I3
tp531
a(I5
I1
tp532
a(I2
I240
I0
I43
tp533
tp534
sS'22335484f61'
p535
((lp536
(I2
I2
tp537
ag409
a(I2
I154
I0
I26
tp538
tp539
sS'247483849394f4244'
p540
((lp541
(I2
I4
tp542
a(I1
I3
tp543
a(I2
I277
I0
I51
tp544
tp545
sS'2564747583f4480'
p546
((lp547
g325
a(I5
I3
tp548
ag515
a(I1
I5
tp549
a(I2
I182
I0
I42
tp550
tp551
sS'828384939495f344244535455'
p552
((lp553
(I9
I5
tp554
ag531
a(I2
I850
I0
I54
tp555
tp556
sS'778392939495f525354556364'
p557
((lp558
(I7
I7
tp559
ag250
a(I2
I1166
I0
I37
tp560
tp561
sS'258392939495f525354667787'
p562
((lp563
(I2
I5
tp564
a(I1
I4
tp565
a(I2
I466
I0
I44
tp566
tp567
sS'838492939495f434445525354'
p568
((lp569
(I9
I2
tp570
ag403
a(I2
I1071
I0
I53
tp571
tp572
sS'3674828393f4450'
p573
((lp574
(I3
I6
tp575
a(I2
I5
tp576
a(I2
I205
I0
I39
tp577
tp578
sS'137483849394f4245'
p579
((lp580
g543
a(I0
I3
tp581
a(I1
I51
I0
I0
tp582
tp583
sS'148392939495f415354667787'
p584
((lp585
g565
a(I0
I3
tp586
a(I1
I42
I0
I0
tp587
tp588
sS'74828493f304245'
p589
((lp590
g323
a(I7
I5
tp591
ag390
a(I2
I206
I0
I31
tp592
tp593
sS'358384929394f4255'
p594
((lp595
g237
ag542
a(I2
I321
I0
I53
tp596
tp597
sS'368392939495f525354636677'
p598
((lp599
g398
ag564
a(I2
I782
I0
I42
tp600
tp601
sS'237382849394f425455'
p602
((lp603
(I8
I2
tp604
a(I6
I4
tp605
a(I4
I4
tp606
a(I6
I6
tp607
a(I2
I368
I0
I51
tp608
tp609
sS'838492939495f435253545563'
p610
((lp611
(I8
I4
tp612
a(I8
I2
tp613
a(I10
I4
tp614
a(I8
I6
tp615
a(I2
I1472
I0
I52
tp616
tp617
sS'738283848593f424344525354'
p618
((lp619
(I9
I3
tp620
a(I9
I4
tp621
a(I2
I1214
I0
I41
tp622
tp623
sS'235157626694f44'
p624
((lp625
(I6
I2
tp626
a(I4
I0
tp627
a(I2
I178
I0
I40
tp628
tp629
sS'237382848594f345354'
p630
((lp631
g385
a(I4
I5
tp632
a(I6
I3
tp633
a(I4
I3
tp634
a(I1
I73
I0
I0
tp635
tp636
sS'134051576694f44'
p637
((lp638
g499
a(I0
I3
tp639
a(I1
I34
I0
I0
tp640
tp641
sS'4674828393f4044'
p642
((lp643
g268
ag575
a(I2
I287
I0
I40
tp644
tp645
sS'748283848593f424344455355'
p646
((lp647
g323
a(I7
I3
tp648
a(I2
I1164
I0
I51
tp649
tp650
sS'738283849394f434445525463'
p651
((lp652
g295
a(I5
I3
tp653
a(I3
I3
tp654
a(I5
I5
tp655
a(I3
I5
tp656
a(I2
I1500
I0
I47
tp657
tp658
sS'838492939495f424344455355'
p659
((lp660
g504
a(I8
I2
tp661
a(I2
I848
I0
I53
tp662
tp663
sS'838692939495f435253545564'
p664
((lp665
g615
ag559
a(I2
I804
I0
I52
tp666
tp667
sS'33546484f51'
p668
((lp669
g289
a(I4
I4
tp670
ag537
a(I2
I114
I0
I30
tp671
tp672
sS'838492939495f344244455354'
p673
((lp674
(I9
I2
tp675
ag604
a(I2
I1041
I0
I53
tp676
tp677
sS'235766738494f44'
p678
((lp679
(I8
I4
tp680
ag626
a(I2
I201
I0
I47
tp681
tp682
sS'236673849394f43'
p683
((lp684
g345
a(I7
I5
tp685
a(I5
I7
tp686
a(I2
I153
I0
I48
tp687
tp688
sS'738283849394f434445525354'
p689
((lp690
(I9
I4
tp691
ag374
a(I2
I1359
I0
I50
tp692
tp693
sssI3
(dp694
g2
(dp695
S'8284a5f7077'
p696
((lp697
(I7
I7
tp698
a(I8
I6
tp699
a(I3
I782
I82
I7
tp700
tp701
sS'738384929394f434445525354'
p702
((lp703
(I4
I4
tp704
a(I4
I2
tp705
a(I6
I4
tp706
a(I8
I2
tp707
a(I10
I2
tp708
a(I3
I40219
I988
I58
tp709
tp710
sS'828384929394f445253546365'
p711
((lp712
(I6
I5
tp713
a(I6
I6
tp714
a(I3
I42216
I827
I56
tp715
tp716
sS'728283848693f435253545563'
p717
((lp718
(I5
I2
tp719
a(I7
I4
tp720
a(I9
I2
tp721
a(I3
I20465
I531
I45
tp722
tp723
sS'8294a4f7096'
p724
((lp725
(I9
I6
tp726
a(I10
I6
tp727
a(I3
I1236
I123
I9
tp728
tp729
sS'828384939495f434445525354'
p730
((lp731
g182
a(I6
I3
tp732
a(I3
I18061
I447
I53
tp733
tp734
sS'82b4f70c5'
p735
((lp736
(I12
I5
tp737
a(I13
I4
tp738
a(I1
I11
I0
I0
tp739
tp740
sS'7282838693f435354556392'
p741
((lp742
(I5
I3
tp743
a(I7
I3
tp744
a(I9
I1
tp745
a(I3
I37034
I1133
I44
tp746
tp747
sS'33728386f54559192'
p748
((lp749
(I9
I1
tp750
a(I9
I3
tp751
a(I7
I3
tp752
a(I7
I1
tp753
a(I3
I13092
I584
I28
tp754
tp755
sS'46f535463b2'
p756
((lp757
(I5
I3
tp758
a(I5
I5
tp759
a(I3
I7
tp760
a(I1
I16
I0
I0
tp761
tp762
sS'828384929394f525354636466'
p763
((lp764
g714
ag698
a(I3
I49588
I1083
I59
tp765
tp766
sS'7384a5f6177'
p767
((lp768
(I6
I1
tp769
a(I7
I0
tp770
a(I3
I1569
I208
I6
tp771
tp772
sS'82a4b4f70a6'
p773
((lp774
g727
a(I11
I6
tp775
a(I3
I1177
I106
I8
tp776
tp777
sS'738384f527795'
p778
((lp779
(I5
I2
tp780
ag769
a(I3
I2473
I196
I16
tp781
tp782
sS'8283929394a4f445253546366'
p783
((lp784
(I4
I4
tp785
a(I6
I2
tp786
a(I6
I4
tp787
a(I3
I77549
I1895
I52
tp788
tp789
sS'568493a2f52535463'
p790
((lp791
(I5
I2
tp792
a(I7
I4
tp793
a(I9
I4
tp794
a(I9
I2
tp795
a(I11
I2
tp796
a(I3
I5302
I118
I35
tp797
tp798
sS'828384869394f434452535463'
p799
((lp800
(I4
I4
tp801
a(I5
I5
tp802
a(I3
I42136
I1004
I55
tp803
tp804
sS'1286f54558192'
p805
((lp806
(I5
I5
tp807
a(I4
I4
tp808
a(I2
I5111
I211
I32
tp809
tp810
sS'2286f54557192'
p811
((lp812
g753
a(I8
I1
tp813
a(I3
I3169
I110
I25
tp814
tp815
sS'828492939495f434445525354'
p816
((lp817
(I4
I5
tp818
a(I6
I3
tp819
a(I3
I18909
I370
I53
tp820
tp821
sS'828494f7086'
p822
((lp823
g699
ag726
a(I3
I1303
I138
I9
tp824
tp825
sS'849394a1f4345525354'
p826
((lp827
(I4
I5
tp828
a(I6
I3
tp829
a(I3
I6765
I169
I39
tp830
tp831
sS'849394a2f4352535463'
p832
((lp833
(I4
I3
tp834
a(I6
I5
tp835
a(I3
I16151
I389
I31
tp836
tp837
sS'82a4b5f70b6'
p838
((lp839
g775
ag737
a(I3
I1191
I110
I7
tp840
tp841
sS'828392939495f434452535463'
p842
((lp843
(I4
I3
tp844
ag713
a(I3
I59439
I1472
I48
tp845
tp846
sS'838492939495f424344455354'
p847
((lp848
(I4
I2
tp849
ag792
a(I3
I24013
I539
I52
tp850
tp851
sS'558283849294f5253546377'
p852
((lp853
(I5
I3
tp854
a(I7
I3
tp855
a(I9
I1
tp856
a(I9
I3
tp857
a(I9
I5
tp858
a(I3
I16984
I452
I37
tp859
tp860
ssg65
(dp861
S'828384939495f434452535455'
p862
((lp863
(I9
I5
tp864
a(I7
I3
tp865
a(I3
I26804
I869
I51
tp866
tp867
sS'828384939495f424445525354'
p868
((lp869
(I9
I5
tp870
a(I7
I3
tp871
a(I3
I25172
I784
I51
tp872
tp873
sS'7382849394f365355'
p874
((lp875
(I8
I2
tp876
a(I6
I4
tp877
a(I4
I6
tp878
a(I2
I6
tp879
a(I3
I14143
I250
I44
tp880
tp881
sS'157382839394f142433'
p882
((lp883
(I1
I5
tp884
a(I0
I4
tp885
a(I1
I50
I0
I0
tp886
tp887
sS'828384869394f435253545563'
p888
((lp889
(I9
I4
tp890
a(I7
I2
tp891
a(I3
I29043
I573
I59
tp892
tp893
sS'738283849394f424452535455'
p894
((lp895
(I8
I3
tp896
a(I6
I3
tp897
a(I4
I1
tp898
a(I4
I3
tp899
a(I4
I5
tp900
a(I3
I7192
I148
I53
tp901
tp902
sS'738283849394f333436424553'
p903
((lp904
(I8
I4
tp905
a(I6
I2
tp906
a(I4
I4
tp907
a(I4
I6
tp908
a(I2
I6
tp909
a(I3
I13486
I286
I56
tp910
tp911
sS'3541546482fb6'
p912
((lp913
(I6
I4
tp914
a(I4
I4
tp915
a(I2
I6
tp916
a(I3
I5173
I54
I35
tp917
tp918
sS'3142638494fb5'
p919
((lp920
(I3
I1
tp921
a(I2
I2
tp922
a(I3
I5471
I117
I39
tp923
tp924
sS'727382838493f434451525354'
p925
((lp926
(I9
I3
tp927
a(I7
I5
tp928
a(I3
I49582
I1179
I66
tp929
tp930
sS'267382839394f243334'
p931
((lp932
g909
ag884
a(I3
I25605
I806
I45
tp933
tp934
sS'738283849394f435253545566'
p935
((lp936
(I8
I4
tp937
a(I6
I2
tp938
a(I4
I2
tp939
a(I4
I4
tp940
a(I6
I4
tp941
a(I4
I6
tp942
a(I3
I22095
I561
I60
tp943
tp944
sS'838492939495f334244455354'
p945
((lp946
(I9
I2
tp947
a(I8
I2
tp948
a(I3
I30563
I1181
I54
tp949
tp950
sS'838492939495f424445525354'
p951
((lp952
(I9
I2
tp953
ag876
a(I3
I38405
I1448
I53
tp954
tp955
sS'8283849394f455254636477'
p956
((lp957
(I9
I3
tp958
a(I7
I3
tp959
a(I5
I3
tp960
a(I5
I5
tp961
a(I3
I5
tp962
a(I3
I42103
I934
I61
tp963
tp964
sS'3574828384f60'
p965
((lp966
(I8
I2
tp967
a(I7
I1
tp968
a(I3
I1630
I26
I11
tp969
tp970
sS'4042637273fb5'
p971
((lp972
(I7
I2
tp973
a(I7
I4
tp974
a(I5
I2
tp975
a(I3
I2
tp976
a(I3
I4266
I49
I36
tp977
tp978
sS'738283849394f424445525463'
p979
((lp980
g871
a(I5
I3
tp981
a(I3
I37575
I748
I55
tp982
tp983
sS'8384929394f26435354'
p984
((lp985
(I9
I3
tp986
a(I7
I3
tp987
a(I3
I8810
I162
I47
tp988
tp989
sS'838492939495f424344455463'
p990
((lp991
(I9
I5
tp992
a(I7
I3
tp993
a(I5
I3
tp994
a(I3
I3
tp995
a(I5
I5
tp996
a(I3
I5
tp997
a(I3
I61731
I1279
I68
tp998
tp999
sS'828384939495f444552535463'
p1000
((lp1001
(I9
I5
tp1002
a(I8
I6
tp1003
a(I3
I34758
I870
I54
tp1004
tp1005
sS'7483849395f425467'
p1006
((lp1007
(I8
I3
tp1008
a(I6
I5
tp1009
a(I4
I3
tp1010
a(I4
I1
tp1011
a(I3
I10912
I131
I52
tp1012
tp1013
sS'357483849394f4254'
p1014
((lp1015
(I8
I3
tp1016
a(I6
I5
tp1017
a(I4
I3
tp1018
a(I4
I1
tp1019
a(I1
I18
I0
I0
tp1020
tp1021
sS'72838693f435455639192'
p1022
((lp1023
(I9
I3
tp1024
a(I7
I3
tp1025
a(I5
I3
tp1026
a(I3
I3
tp1027
a(I3
I21179
I798
I31
tp1028
tp1029
sS'467382839394f5377'
p1030
((lp1031
(I8
I3
tp1032
a(I6
I3
tp1033
a(I3
I12152
I90
I56
tp1034
tp1035
sS'354446638394fb6'
p1036
((lp1037
g942
a(I2
I4
tp1038
a(I3
I6635
I106
I52
tp1039
tp1040
sS'358384929394f4253'
p1041
((lp1042
g953
a(I7
I4
tp1043
a(I3
I7406
I77
I54
tp1044
tp1045
sS'1573849394f33'
p1046
((lp1047
(I1
I5
tp1048
a(I0
I4
tp1049
a(I1
I37
I0
I0
tp1050
tp1051
sS'828384939495f434452535463'
p1052
((lp1053
(I9
I5
tp1054
a(I8
I6
tp1055
a(I3
I35839
I839
I54
tp1056
tp1057
sS'2242637394fb4'
p1058
((lp1059
(I6
I3
tp1060
a(I8
I3
tp1061
a(I10
I5
tp1062
a(I12
I3
tp1063
a(I1
I10
I0
I0
tp1064
tp1065
sS'838492939495f434445525354'
p1066
((lp1067
g947
a(I8
I2
tp1068
a(I3
I34787
I1202
I53
tp1069
tp1070
sS'828384939495f424552535455'
p1071
((lp1072
(I9
I5
tp1073
a(I7
I3
tp1074
a(I3
I27999
I920
I51
tp1075
tp1076
sS'2130316373fc3'
p1077
((lp1078
(I7
I3
tp1079
a(I6
I2
tp1080
a(I2
I3941
I91
I29
tp1081
tp1082
sS'56738394f37'
p1083
((lp1084
g987
a(I6
I3
tp1085
a(I3
I1859
I10
I30
tp1086
tp1087
sS'3240426373fc4'
p1088
((lp1089
(I4
I2
tp1090
a(I3
I1
tp1091
a(I2
I7318
I129
I43
tp1092
tp1093
sS'267383849394f23333442'
p1094
((lp1095
(I2
I6
tp1096
a(I1
I5
tp1097
a(I3
I10190
I208
I46
tp1098
tp1099
sS'8283849394f4245525462'
p1100
((lp1101
(I9
I3
tp1102
a(I7
I3
tp1103
a(I5
I1
tp1104
a(I5
I3
tp1105
a(I5
I5
tp1106
a(I3
I5
tp1107
a(I3
I41921
I905
I59
tp1108
tp1109
sS'738283849394f333435424554'
p1110
((lp1111
g948
a(I6
I4
tp1112
a(I4
I4
tp1113
ag1096
a(I3
I26260
I667
I52
tp1114
tp1115
sS'36456383f67'
p1116
((lp1117
(I3
I6
tp1118
a(I2
I5
tp1119
a(I3
I2688
I42
I27
tp1120
tp1121
sS'3582838494f51'
p1122
((lp1123
(I9
I4
tp1124
a(I7
I4
tp1125
a(I3
I4825
I62
I38
tp1126
tp1127
sS'838492939495f424344455254'
p1128
((lp1129
(I9
I2
tp1130
a(I8
I2
tp1131
a(I3
I17977
I461
I54
tp1132
tp1133
sS'4163849395f87'
p1134
((lp1135
g1011
a(I4
I2
tp1136
a(I3
I3544
I59
I38
tp1137
tp1138
sS'456673829394f74'
p1139
((lp1140
g876
a(I6
I4
tp1141
a(I8
I4
tp1142
a(I1
I5
I0
I0
tp1143
tp1144
sS'2635415482fc5'
p1145
((lp1146
(I4
I1
tp1147
a(I3
I0
tp1148
a(I2
I4855
I76
I37
tp1149
tp1150
sS'3582838494f527477'
p1151
((lp1152
(I8
I3
tp1153
a(I8
I5
tp1154
a(I6
I3
tp1155
ag1147
a(I3
I5504
I75
I37
tp1156
tp1157
sS'3541748284f97'
p1158
((lp1159
(I8
I4
tp1160
ag914
a(I3
I4180
I36
I38
tp1161
tp1162
sS'73839294f2665'
p1163
((lp1164
(I9
I2
tp1165
a(I7
I4
tp1166
a(I5
I6
tp1167
a(I3
I3443
I41
I34
tp1168
tp1169
sS'7273828384f435152535486'
p1170
((lp1171
(I8
I2
tp1172
a(I6
I4
tp1173
a(I4
I2
tp1174
a(I6
I2
tp1175
a(I4
I0
tp1176
a(I3
I16490
I244
I73
tp1177
tp1178
sS'4263849395f97'
p1179
((lp1180
(I9
I5
tp1181
a(I7
I3
tp1182
a(I5
I3
tp1183
ag921
a(I3
I4042
I71
I36
tp1184
tp1185
sS'828384939495f424344455253'
p1186
((lp1187
g870
ag1079
a(I3
I23895
I995
I50
tp1188
tp1189
sS'738283849394f424344525354'
p1190
((lp1191
(I9
I4
tp1192
ag973
a(I3
I40028
I1010
I49
tp1193
tp1194
sS'8384929395f425457'
p1195
((lp1196
(I9
I2
tp1197
a(I7
I4
tp1198
a(I3
I5666
I72
I48
tp1199
tp1200
sS'3386f54557192'
p1201
((lp1202
(I3
I3
tp1203
a(I2
I2
tp1204
a(I3
I1755
I116
I15
tp1205
tp1206
sS'45638394f57'
p1207
((lp1208
(I9
I4
tp1209
a(I7
I2
tp1210
a(I5
I4
tp1211
ag1118
a(I3
I2082
I37
I32
tp1212
tp1213
sS'828384939495f333442455354'
p1214
((lp1215
g1002
a(I7
I3
tp1216
a(I3
I14771
I347
I55
tp1217
tp1218
sS'56638394f47'
p1219
((lp1220
g1167
a(I4
I5
tp1221
a(I3
I1740
I28
I30
tp1222
tp1223
sS'738283849394f425253545564'
p1224
((lp1225
(I8
I3
tp1226
a(I6
I3
tp1227
a(I4
I1
tp1228
a(I4
I3
tp1229
a(I6
I5
tp1230
a(I4
I5
tp1231
a(I3
I6853
I156
I51
tp1232
tp1233
sS'2673849394f43'
p1234
((lp1235
g879
ag1048
a(I3
I3152
I47
I30
tp1236
tp1237
sS'357483849394f4263'
p1238
((lp1239
g114
a(I7
I3
tp1240
a(I5
I3
tp1241
a(I3
I1
tp1242
a(I1
I26
I0
I0
tp1243
tp1244
sS'3541647482fa6'
p1245
((lp1246
(I7
I4
tp1247
a(I5
I4
tp1248
a(I3
I5304
I84
I32
tp1249
tp1250
sS'444663739394f97'
p1251
((lp1252
g865
a(I5
I3
tp1253
a(I3
I5
tp1254
a(I3
I6614
I81
I50
tp1255
tp1256
sS'358384929394f4264'
p1257
((lp1258
(I9
I3
tp1259
a(I7
I5
tp1260
a(I5
I3
tp1261
a(I3
I1
tp1262
a(I1
I49
I0
I0
tp1263
tp1264
sS'828384869394f455253546364'
p1265
((lp1266
g1003
a(I7
I6
tp1267
a(I3
I65608
I1971
I60
tp1268
tp1269
sS'243544638394fc5'
p1270
((lp1271
g1254
a(I1
I3
tp1272
a(I2
I10343
I121
I55
tp1273
tp1274
sS'466373829394f5387'
p1275
((lp1276
(I8
I2
tp1277
a(I6
I4
tp1278
a(I6
I2
tp1279
a(I4
I4
tp1280
a(I3
I6853
I55
I58
tp1281
tp1282
sS'7383849294f26535463'
p1283
((lp1284
(I8
I4
tp1285
a(I6
I2
tp1286
a(I4
I4
tp1287
a(I6
I4
tp1288
a(I3
I15489
I389
I51
tp1289
tp1290
sS'354446639394fa7'
p1291
((lp1292
(I9
I3
tp1293
a(I8
I3
tp1294
a(I3
I5475
I49
I47
tp1295
tp1296
sS'838492939495f424345535462'
p1297
((lp1298
(I9
I4
tp1299
a(I7
I2
tp1300
a(I5
I2
tp1301
a(I3
I4
tp1302
a(I5
I6
tp1303
a(I3
I71409
I1927
I59
tp1304
tp1305
sS'3031326373fc4'
p1306
((lp1307
g976
a(I2
I1
tp1308
a(I2
I4263
I96
I32
tp1309
tp1310
sS'2286f54558192'
p1311
((lp1312
g1204
a(I1
I2
tp1313
a(I3
I1588
I192
I7
tp1314
tp1315
sS'838492939495f424344535455'
p1316
((lp1317
g953
ag1277
a(I3
I32653
I1100
I54
tp1318
tp1319
sS'14456383f87'
p1320
((lp1321
(I1
I4
tp1322
a(I0
I3
tp1323
a(I1
I26
I0
I0
tp1324
tp1325
sS'3142638493fa6'
p1326
((lp1327
(I9
I3
tp1328
a(I9
I4
tp1329
a(I3
I4401
I78
I36
tp1330
tp1331
sS'838492939495f434445535464'
p1332
((lp1333
(I9
I5
tp1334
a(I7
I3
tp1335
a(I5
I5
tp1336
a(I3
I5
tp1337
a(I3
I63154
I1537
I56
tp1338
tp1339
sS'2242638494fc4'
p1340
((lp1341
(I8
I4
tp1342
a(I7
I3
tp1343
a(I2
I6876
I133
I42
tp1344
tp1345
sS'25456383f77'
p1346
((lp1347
g1119
ag1322
a(I3
I1457
I17
I20
tp1348
tp1349
sS'3132406373fc3'
p1350
((lp1351
g1176
a(I3
I0
tp1352
a(I2
I6026
I111
I37
tp1353
tp1354
sS'3571748384f70'
p1355
((lp1356
(I8
I4
tp1357
a(I8
I2
tp1358
a(I6
I0
tp1359
a(I8
I0
tp1360
a(I1
I24
I0
I0
tp1361
tp1362
sS'4072738384f435497'
p1363
((lp1364
(I8
I4
tp1365
a(I8
I2
tp1366
a(I6
I4
tp1367
a(I4
I4
tp1368
ag1090
a(I3
I7020
I90
I45
tp1369
tp1370
sS'7282848693f435354556392'
p1371
((lp1372
(I8
I4
tp1373
a(I8
I3
tp1374
a(I3
I38297
I1407
I45
tp1375
tp1376
sS'4174849395f77'
p1377
((lp1378
g1198
a(I6
I3
tp1379
a(I3
I4522
I83
I41
tp1380
tp1381
sS'828384939495f424452535455'
p1382
((lp1383
g864
a(I7
I3
tp1384
a(I3
I18052
I346
I53
tp1385
tp1386
sS'4042727383fa6'
p1387
((lp1388
(I8
I3
tp1389
a(I6
I3
tp1390
a(I3
I3860
I56
I35
tp1391
tp1392
sS'2130316263fc4'
p1393
((lp1394
g1352
a(I1
I2
tp1395
a(I2
I3982
I91
I29
tp1396
tp1397
sS'157383849394f13233442'
p1398
((lp1399
g1097
a(I0
I4
tp1400
a(I1
I51
I0
I0
tp1401
tp1402
sS'2630355482fc4'
p1403
((lp1404
g1248
a(I4
I3
tp1405
a(I2
I4747
I101
I33
tp1406
tp1407
sS'3541828494f87'
p1408
((lp1409
(I9
I4
tp1410
ag1247
a(I3
I4346
I41
I38
tp1411
tp1412
sS'457382849394f6475'
p1413
((lp1414
g937
a(I6
I6
tp1415
a(I3
I800
I34
I1
tp1416
tp1417
sS'1286f44548192'
p1418
((lp1419
g1313
a(I0
I3
tp1420
a(I1
I10
I0
I0
tp1421
tp1422
sss.