(dp0
I1
(dp1
S'north'
p2
(dp3
sS'south'
p4
(dp5
ssI2
(dp6
g2
(dp7
sg4
(dp8
S'424344455463X838492939495'
p9
((lp10
(I9
I5
tp11
a(I7
I3
tp12
a(I5
I3
tp13
a(I3
I3
tp14
a(I5
I5
tp15
a(I3
I5
tp16
a(I2
I997
I0
I70
tp17
tp18
sS'434452535463X828384939495'
p19
((lp20
(I8
I2
tp21
a(I9
I2
tp22
a(I2
I1505
I0
I52
tp23
tp24
sS'434445525354X838492939495'
p25
((lp26
(I9
I2
tp27
ag21
a(I2
I1071
I0
I53
tp28
tp29
sS'434452535473X828384939495'
p30
((lp31
g21
a(I6
I4
tp32
a(I4
I2
tp33
a(I6
I2
tp34
a(I2
I437
I0
I57
tp35
tp36
sS'434453546396X840000000000'
p37
((lp38
(I9
I4
tp39
a(I7
I4
tp40
a(I5
I2
tp41
a(I3
I4
tp42
a(I2
I253
I0
I22
tp43
tp44
sS'434445525463X828384939495'
p45
((lp46
(I9
I5
tp47
a(I7
I3
tp48
a(I5
I3
tp49
a(I3
I3
tp50
a(I5
I5
tp51
a(I3
I5
tp52
a(I2
I871
I0
I58
tp53
tp54
sssI3
(dp55
g2
(dp56
sg4
(dp57
ss.