(dp0
I1
(dp1
S'north'
p2
(dp3
sS'south'
p4
(dp5
ssI2
(dp6
g2
(dp7
sg4
(dp8
S'838492939495f424445535465'
p9
((lp10
(I9
I3
tp11
a(I7
I5
tp12
a(I5
I5
tp13
a(I3
I3
tp14
a(I5
I1
tp15
a(I2
I1145
I0
I60
tp16
tp17
sS'358384929394f4244'
p18
((lp19
(I3
I5
tp20
a(I5
I3
tp21
a(I3
I1
tp22
a(I1
I57
I0
I0
tp23
tp24
sS'748283848593f424445525354'
p25
((lp26
(I8
I3
tp27
a(I6
I5
tp28
a(I4
I3
tp29
a(I4
I1
tp30
a(I2
I435
I0
I59
tp31
tp32
sS'358384929394f4264'
p33
((lp34
(I9
I3
tp35
a(I7
I5
tp36
a(I5
I3
tp37
a(I3
I1
tp38
a(I1
I41
I0
I0
tp39
tp40
sS'73748284f304345'
p41
((lp42
(I8
I2
tp43
a(I6
I4
tp44
a(I2
I164
I0
I32
tp45
tp46
sS'738283848594f424344455355'
p47
((lp48
(I9
I4
tp49
a(I7
I2
tp50
a(I7
I4
tp51
a(I2
I1137
I0
I53
tp52
tp53
sS'518384929495f455462'
p54
((lp55
(I9
I4
tp56
a(I7
I2
tp57
a(I5
I2
tp58
a(I5
I0
tp59
a(I2
I677
I0
I60
tp60
tp61
sS'505183849295f4553'
p62
((lp63
g59
a(I5
I2
tp64
a(I5
I4
tp65
a(I3
I6
tp66
a(I1
I51
I0
I0
tp67
tp68
sS'828384939495f424344455354'
p69
((lp70
(I9
I5
tp71
a(I7
I3
tp72
a(I2
I1001
I0
I52
tp73
tp74
sS'838492939495f424344455463'
p75
((lp76
(I9
I5
tp77
a(I7
I3
tp78
a(I5
I3
tp79
a(I3
I3
tp80
a(I5
I5
tp81
ag20
a(I2
I997
I0
I70
tp82
tp83
sS'738283848593f424344455354'
p84
((lp85
(I9
I3
tp86
ag49
a(I2
I1096
I0
I39
tp87
tp88
sS'236673849394f43'
p89
((lp90
g11
a(I7
I5
tp91
a(I5
I7
tp92
a(I2
I153
I0
I48
tp93
tp94
sS'13335484f71'
p95
((lp96
(I1
I3
tp97
a(I0
I3
tp98
a(I1
I26
I0
I0
tp99
tp100
sS'738283849394f344244535456'
p101
((lp102
(I8
I3
tp103
a(I6
I3
tp104
a(I4
I3
tp105
a(I4
I5
tp106
a(I2
I3
tp107
a(I2
I280
I0
I56
tp108
tp109
sS'737482838485f424344455354'
p110
((lp111
g72
a(I7
I5
tp112
a(I9
I3
tp113
a(I2
I1498
I0
I52
tp114
tp115
sS'7482848593f30444553'
p116
((lp117
(I8
I5
tp118
a(I6
I3
tp119
a(I4
I3
tp120
a(I2
I318
I0
I48
tp121
tp122
sS'358384929394f4255'
p123
((lp124
g20
a(I2
I4
tp125
a(I2
I321
I0
I53
tp126
tp127
sS'247483849394f4244'
p128
((lp129
g125
a(I1
I3
tp130
a(I2
I277
I0
I51
tp131
tp132
sS'234051576694f43'
p133
((lp134
g107
a(I1
I3
tp135
a(I2
I160
I0
I37
tp136
tp137
sS'248384929394f4245'
p138
((lp139
(I9
I2
tp140
a(I7
I4
tp141
a(I2
I242
I0
I54
tp142
tp143
sS'738283849394f424344455355'
p144
((lp145
(I9
I4
tp146
ag118
a(I2
I1367
I0
I49
tp147
tp148
sS'235762667394f45'
p149
((lp150
(I7
I3
tp151
a(I5
I1
tp152
a(I2
I240
I0
I43
tp153
tp154
sS'22335484f61'
p155
((lp156
(I2
I2
tp157
ag97
a(I2
I154
I0
I26
tp158
tp159
sS'828384939495f344244535455'
p160
((lp161
(I9
I5
tp162
ag151
a(I2
I850
I0
I54
tp163
tp164
sS'137483849394f4245'
p165
((lp166
g130
a(I0
I3
tp167
a(I1
I51
I0
I0
tp168
tp169
sS'237382849394f425455'
p170
((lp171
(I8
I2
tp172
a(I6
I4
tp173
a(I4
I4
tp174
a(I6
I6
tp175
a(I2
I368
I0
I51
tp176
tp177
sS'235766738494f44'
p178
((lp179
(I8
I4
tp180
a(I6
I2
tp181
a(I2
I201
I0
I47
tp182
tp183
sS'134051576694f44'
p184
((lp185
g135
a(I0
I3
tp186
a(I1
I34
I0
I0
tp187
tp188
sS'33647484f41'
p189
((lp190
g51
a(I5
I4
tp191
a(I2
I109
I0
I28
tp192
tp193
sS'748283848593f424344455355'
p194
((lp195
g113
a(I7
I3
tp196
a(I2
I1164
I0
I51
tp197
tp198
sS'838492939495f424344455355'
p199
((lp200
g140
a(I8
I2
tp201
a(I2
I848
I0
I53
tp202
tp203
sS'33546484f51'
p204
((lp205
g44
a(I4
I4
tp206
ag157
a(I2
I114
I0
I30
tp207
tp208
sS'838492939495f344244455354'
p209
((lp210
(I9
I2
tp211
ag172
a(I2
I1041
I0
I53
tp212
tp213
sS'235157626694f44'
p214
((lp215
g181
a(I4
I0
tp216
a(I2
I178
I0
I40
tp217
tp218
sS'74828493f304245'
p219
((lp220
g113
a(I7
I5
tp221
a(I7
I3
tp222
a(I2
I206
I0
I31
tp223
tp224
sS'64737484f303445'
p225
((lp226
g222
a(I5
I5
tp227
a(I3
I5
tp228
a(I3
I3
tp229
a(I2
I133
I0
I32
tp230
tp231
sssI3
(dp232
g2
(dp233
S'82a4b5f70b6'
p234
((lp235
(I11
I6
tp236
a(I12
I5
tp237
a(I3
I1191
I110
I7
tp238
tp239
sS'828492939495f434445525354'
p240
((lp241
(I4
I5
tp242
a(I6
I3
tp243
a(I3
I18909
I370
I53
tp244
tp245
sS'828384929394f445253546365'
p246
((lp247
(I6
I5
tp248
a(I6
I6
tp249
a(I3
I42216
I827
I56
tp250
tp251
sS'828384929394f525354636466'
p252
((lp253
g249
a(I7
I7
tp254
a(I3
I49588
I1083
I59
tp255
tp256
sS'8294a4f7096'
p257
((lp258
(I9
I6
tp259
a(I10
I6
tp260
a(I3
I1236
I123
I9
tp261
tp262
sS'828494f7086'
p263
((lp264
(I8
I6
tp265
ag259
a(I3
I1303
I138
I9
tp266
tp267
sS'7384a5f6177'
p268
((lp269
(I6
I1
tp270
a(I7
I0
tp271
a(I3
I1569
I208
I6
tp272
tp273
sS'8284a5f7077'
p274
((lp275
g254
ag265
a(I3
I782
I82
I7
tp276
tp277
sS'738384f527795'
p278
((lp279
(I5
I2
tp280
ag270
a(I3
I2473
I196
I16
tp281
tp282
sS'828392939495f434452535463'
p283
((lp284
(I4
I3
tp285
ag248
a(I3
I59439
I1472
I48
tp286
tp287
sS'838492939495f424344455354'
p288
((lp289
(I4
I2
tp290
a(I5
I2
tp291
a(I3
I24013
I539
I52
tp292
tp293
sS'558283849294f5253546377'
p294
((lp295
(I5
I3
tp296
a(I7
I3
tp297
a(I9
I1
tp298
a(I9
I3
tp299
a(I9
I5
tp300
a(I3
I16984
I452
I37
tp301
tp302
sS'8283929394a4f445253546366'
p303
((lp304
(I4
I4
tp305
a(I6
I2
tp306
a(I6
I4
tp307
a(I3
I77549
I1895
I52
tp308
tp309
sS'82b4f70c5'
p310
((lp311
g237
a(I13
I4
tp312
a(I1
I11
I0
I0
tp313
tp314
sS'82a4b4f70a6'
p315
((lp316
g260
ag236
a(I3
I1177
I106
I8
tp317
tp318
ssg4
(dp319
S'838492939495f424445525354'
p320
((lp321
(I9
I2
tp322
a(I8
I2
tp323
a(I3
I38405
I1448
I53
tp324
tp325
sS'444663739394f97'
p326
((lp327
(I7
I3
tp328
a(I5
I3
tp329
a(I3
I5
tp330
a(I3
I6614
I81
I50
tp331
tp332
sS'358384929394f4264'
p333
((lp334
(I9
I3
tp335
a(I7
I5
tp336
a(I5
I3
tp337
a(I3
I1
tp338
a(I1
I49
I0
I0
tp339
tp340
sS'243544638394fc5'
p341
((lp342
g330
a(I1
I3
tp343
a(I2
I10343
I121
I55
tp344
tp345
sS'466373829394f5387'
p346
((lp347
(I8
I2
tp348
a(I6
I4
tp349
a(I6
I2
tp350
a(I4
I4
tp351
a(I3
I6853
I55
I58
tp352
tp353
sS'456673829394f74'
p354
((lp355
g323
a(I6
I4
tp356
a(I8
I4
tp357
a(I1
I5
I0
I0
tp358
tp359
sS'838492939495f424344455463'
p360
((lp361
(I9
I5
tp362
a(I7
I3
tp363
a(I5
I3
tp364
a(I3
I3
tp365
a(I5
I5
tp366
a(I3
I5
tp367
a(I3
I61731
I1279
I68
tp368
tp369
sS'828384939495f434452535455'
p370
((lp371
(I9
I5
tp372
ag328
a(I3
I26804
I869
I51
tp373
tp374
sS'7382849394f365355'
p375
((lp376
g323
a(I6
I4
tp377
a(I4
I6
tp378
a(I2
I6
tp379
a(I3
I14143
I250
I44
tp380
tp381
sS'357483849394f4254'
p382
((lp383
(I8
I3
tp384
a(I6
I5
tp385
a(I4
I3
tp386
a(I4
I1
tp387
a(I1
I18
I0
I0
tp388
tp389
sS'467382839394f5377'
p390
((lp391
(I8
I3
tp392
a(I6
I3
tp393
a(I3
I12152
I90
I56
tp394
tp395
sS'354446638394fb6'
p396
((lp397
(I4
I6
tp398
a(I2
I4
tp399
a(I3
I6635
I106
I52
tp400
tp401
sS'838492939495f424344535455'
p402
((lp403
g322
ag348
a(I3
I32653
I1100
I54
tp404
tp405
sS'738283849394f424452535455'
p406
((lp407
(I8
I3
tp408
a(I6
I3
tp409
a(I4
I1
tp410
a(I4
I3
tp411
a(I4
I5
tp412
a(I3
I7192
I148
I53
tp413
tp414
sS'358384929394f4253'
p415
((lp416
g322
a(I7
I4
tp417
a(I3
I7406
I77
I54
tp418
tp419
sS'1573849394f33'
p420
((lp421
(I1
I5
tp422
a(I0
I4
tp423
a(I1
I37
I0
I0
tp424
tp425
sS'828384939495f424552535455'
p426
((lp427
(I9
I5
tp428
a(I7
I3
tp429
a(I3
I27999
I920
I51
tp430
tp431
sS'828384939495f424452535455'
p432
((lp433
g372
a(I7
I3
tp434
a(I3
I18052
I346
I53
tp435
tp436
sS'738283849394f425253545564'
p437
((lp438
(I8
I3
tp439
a(I6
I3
tp440
a(I4
I1
tp441
a(I4
I3
tp442
a(I6
I5
tp443
a(I4
I5
tp444
a(I3
I6853
I156
I51
tp445
tp446
sS'738283849394f435253545566'
p447
((lp448
(I8
I4
tp449
a(I6
I2
tp450
a(I4
I2
tp451
a(I4
I4
tp452
a(I6
I4
tp453
ag398
a(I3
I22095
I561
I60
tp454
tp455
sS'354446639394fa7'
p456
((lp457
(I9
I3
tp458
a(I8
I3
tp459
a(I3
I5475
I49
I47
tp460
tp461
sS'2673849394f43'
p462
((lp463
g379
ag422
a(I3
I3152
I47
I30
tp464
tp465
sS'457382849394f6475'
p466
((lp467
g449
a(I6
I6
tp468
a(I3
I800
I34
I1
tp469
tp470
sss.