(dp0
I1
(dp1
S'north'
p2
(dp3
S'3373b3f5685'
p4
((lp5
(I8
I5
tp6
a(I9
I4
tp7
a(I1
I17
I0
I0
tp8
tp9
sS'7384b3f535667'
p10
((lp11
(I6
I7
tp12
a(I7
I6
tp13
a(I1
I21
I0
I0
tp14
tp15
sS'8384b3f455356'
p16
((lp17
(I4
I5
tp18
ag12
a(I1
I25
I0
I0
tp19
tp20
sS'2373b3f5694'
p21
((lp22
g7
a(I10
I5
tp23
a(I1
I17
I0
I0
tp24
tp25
sS'4473b3f5676'
p26
((lp27
g13
ag6
a(I1
I17
I0
I0
tp28
tp29
sS'7483849394f43455356'
p30
((lp31
(I4
I3
tp32
a(I6
I3
tp33
a(I8
I5
tp34
a(I10
I3
tp35
a(I1
I38
I0
I0
tp36
tp37
sS'0373b3f56b5'
p38
((lp39
(ta(I0
I1
I0
I0
tp40
tp41
sS'838492939495f424344455354'
p42
((lp43
(I4
I2
tp44
a(I6
I4
tp45
a(I1
I59
I0
I0
tp46
tp47
sS'0473b3f56b5'
p48
((lp49
(ta(I0
I1
I0
I0
tp50
tp51
sS'1373b3f56a5'
p52
((lp53
g23
a(I11
I5
tp54
a(I1
I17
I0
I0
tp55
tp56
sS'338384929394f43455354'
p57
((lp58
(I5
I4
tp59
a(I3
I2
tp60
a(I3
I4
tp61
a(I5
I6
tp62
a(I1
I38
I0
I0
tp63
tp64
ssS'south'
p65
(dp66
S'4473b3f5685'
p67
((lp68
(I4
I4
tp69
a(I3
I3
tp70
a(I1
I25
I0
I0
tp71
tp72
sS'3373b3f5694'
p73
((lp74
g70
a(I2
I3
tp75
a(I1
I25
I0
I0
tp76
tp77
sS'7384b3f535676'
p78
((lp79
(I8
I4
tp80
a(I6
I2
tp81
ag69
a(I1
I26
I0
I0
tp82
tp83
sS'8384929394f43455356'
p84
((lp85
(I9
I2
tp86
a(I7
I4
tp87
a(I1
I50
I0
I0
tp88
tp89
sS'1373b3f56b5'
p90
((lp91
(I1
I3
tp92
a(I0
I3
tp93
a(I1
I18
I0
I0
tp94
tp95
sS'838492939495f424344455354'
p96
((lp97
(I9
I2
tp98
a(I7
I4
tp99
a(I1
I59
I0
I0
tp100
tp101
sS'838493f455356a3'
p102
((lp103
(I9
I3
tp104
a(I11
I3
tp105
a(I1
I28
I0
I0
tp106
tp107
sS'358384929394f4264'
p108
((lp109
(I9
I3
tp110
a(I7
I5
tp111
a(I5
I3
tp112
a(I3
I1
tp113
a(I1
I41
I0
I0
tp114
tp115
sS'8384b3f535667'
p116
((lp117
(I8
I3
tp118
a(I7
I3
tp119
a(I1
I25
I0
I0
tp120
tp121
sS'838492939495f434445535464'
p122
((lp123
(I9
I5
tp124
a(I7
I3
tp125
a(I5
I5
tp126
a(I3
I3
tp127
a(I1
I65
I0
I0
tp128
tp129
sS'0373b3f56b5'
p130
((lp131
g93
a(I0
I4
tp132
a(I1
I18
I0
I0
tp133
tp134
sS'2373b3f56a5'
p135
((lp136
g75
ag92
a(I1
I25
I0
I0
tp137
tp138
sS'838492939495f424344455463'
p139
((lp140
(I9
I5
tp141
a(I7
I3
tp142
a(I5
I3
tp143
a(I3
I3
tp144
a(I5
I5
tp145
a(I3
I5
tp146
a(I1
I79
I0
I0
tp147
tp148
sS'0473b3f56b5'
p149
((lp150
g132
a(I0
I3
tp151
a(I1
I18
I0
I0
tp152
tp153
sssI2
(dp154
g2
(dp155
S'9394a3a6f4452535463'
p156
((lp157
(I4
I4
tp158
a(I6
I2
tp159
a(I6
I4
tp160
a(I2
I406
I0
I44
tp161
tp162
sS'a4f52546373a2'
p163
((lp164
(I10
I2
tp165
a(I11
I2
tp166
a(I2
I143
I0
I37
tp167
tp168
sS'b4f52546373b2'
p169
((lp170
g166
a(I12
I3
tp171
a(I2
I138
I0
I36
tp172
tp173
sS'839394a3f5254636473'
p174
((lp175
g160
a(I6
I2
tp176
a(I8
I4
tp177
a(I8
I2
tp178
a(I10
I4
tp179
ag165
a(I2
I336
I0
I55
tp180
tp181
sS'678392939495f525354556364'
p182
((lp183
(I6
I3
tp184
a(I4
I3
tp185
a(I2
I1122
I0
I56
tp186
tp187
sS'839394a6f4344525354'
p188
((lp189
(I4
I3
tp190
a(I4
I5
tp191
a(I6
I3
tp192
a(I2
I360
I0
I45
tp193
tp194
sS'148392939495f525354667787'
p195
((lp196
(I5
I2
tp197
a(I4
I1
tp198
a(I2
I1920
I0
I45
tp199
tp200
sS'c4f52546373c3'
p201
((lp202
g171
a(I12
I5
tp203
a(I1
I42
I0
I0
tp204
tp205
sS'478392939495f525354556364'
p206
((lp207
(I6
I4
tp208
a(I4
I4
tp209
a(I6
I6
tp210
a(I2
I816
I0
I55
tp211
tp212
sS'778392939495f435253545564'
p213
((lp214
(I4
I3
tp215
ag184
a(I2
I905
I0
I50
tp216
tp217
sS'748384939495f434445525354'
p218
((lp219
(I4
I5
tp220
a(I6
I3
tp221
a(I8
I5
tp222
a(I10
I5
tp223
a(I2
I693
I0
I56
tp224
tp225
sS'828384939495f434445525354'
p226
((lp227
(I4
I5
tp228
a(I6
I3
tp229
a(I2
I499
I0
I53
tp230
tp231
sS'838492939495f434445525354'
p232
((lp233
(I4
I5
tp234
a(I6
I3
tp235
a(I2
I565
I0
I53
tp236
tp237
sS'258392939495f525354636677'
p238
((lp239
(I6
I3
tp240
a(I4
I3
tp241
a(I6
I5
tp242
a(I6
I7
tp243
a(I8
I7
tp244
a(I2
I328
I0
I42
tp245
tp246
sS'838492939495f424344455354'
p247
((lp248
(I4
I2
tp249
ag197
a(I2
I697
I0
I52
tp250
tp251
sS'838492939495f434452535463'
p252
((lp253
(I4
I4
tp254
a(I5
I5
tp255
a(I2
I751
I0
I46
tp256
tp257
sS'9394a3a5f5253546364'
p258
((lp259
(I5
I3
tp260
a(I5
I5
tp261
a(I7
I3
tp262
a(I2
I385
I0
I44
tp263
tp264
sS'368392939495f525354556366'
p265
((lp266
g255
a(I7
I7
tp267
a(I2
I357
I0
I51
tp268
tp269
sS'838692939495f435253545563'
p270
((lp271
(I6
I3
tp272
ag208
a(I2
I1117
I0
I38
tp273
tp274
sS'578392939495f435253545564'
p275
((lp276
g185
ag240
a(I2
I701
I0
I51
tp277
tp278
ssg65
(dp279
S'46525583fc3'
p280
((lp281
(I8
I3
tp282
a(I7
I2
tp283
a(I2
I225
I0
I32
tp284
tp285
sS'838492939495f424445525354'
p286
((lp287
(I9
I2
tp288
a(I8
I2
tp289
a(I2
I1042
I0
I53
tp290
tp291
sS'838492939495f424445535465'
p292
((lp293
(I9
I3
tp294
a(I7
I5
tp295
a(I5
I5
tp296
a(I3
I3
tp297
a(I5
I1
tp298
a(I2
I1145
I0
I60
tp299
tp300
sS'358384929394f4244'
p301
((lp302
(I3
I5
tp303
a(I5
I3
tp304
a(I3
I1
tp305
a(I1
I57
I0
I0
tp306
tp307
sS'1525647483fa0'
p308
((lp309
(I1
I5
tp310
a(I0
I4
tp311
a(I1
I34
I0
I0
tp312
tp313
sS'678392939495f435253545564'
p314
((lp315
(I6
I7
tp316
a(I5
I7
tp317
a(I2
I938
I0
I39
tp318
tp319
sS'748283848593f424445525354'
p320
((lp321
(I8
I3
tp322
a(I6
I5
tp323
a(I4
I3
tp324
a(I4
I1
tp325
a(I2
I435
I0
I59
tp326
tp327
sS'7482838493f4043455354'
p328
((lp329
(I8
I4
tp330
a(I6
I4
tp331
a(I4
I2
tp332
a(I4
I4
tp333
a(I4
I6
tp334
a(I2
I498
I0
I45
tp335
tp336
sS'358384929394f4264'
p337
((lp338
(I9
I3
tp339
a(I7
I5
tp340
a(I5
I3
tp341
a(I3
I1
tp342
a(I1
I41
I0
I0
tp343
tp344
sS'738283849394f434445525354'
p345
((lp346
(I9
I4
tp347
a(I8
I5
tp348
a(I2
I1359
I0
I50
tp349
tp350
sS'358283849394f4452'
p351
((lp352
(I3
I5
tp353
a(I5
I3
tp354
a(I5
I1
tp355
a(I1
I57
I0
I0
tp356
tp357
sS'73748284f304345'
p358
((lp359
(I8
I2
tp360
a(I6
I4
tp361
a(I2
I164
I0
I32
tp362
tp363
sS'828384939495f434445525354'
p364
((lp365
(I9
I5
tp366
a(I7
I3
tp367
a(I2
I954
I0
I52
tp368
tp369
sS'838492939495f424344455254'
p370
((lp371
(I9
I2
tp372
a(I8
I2
tp373
a(I2
I857
I0
I53
tp374
tp375
sS'478392939495f525354556366'
p376
((lp377
(I4
I7
tp378
a(I3
I6
tp379
a(I2
I675
I0
I42
tp380
tp381
sS'738283848594f424344455355'
p382
((lp383
(I9
I4
tp384
a(I7
I2
tp385
a(I7
I4
tp386
a(I2
I1137
I0
I53
tp387
tp388
sS'2564748393f4470'
p389
((lp390
(I9
I3
tp391
a(I7
I3
tp392
a(I7
I5
tp393
a(I5
I3
tp394
a(I3
I5
tp395
a(I1
I5
tp396
a(I2
I193
I0
I43
tp397
tp398
sS'748283848593f434445525354'
p399
((lp400
g348
a(I6
I3
tp401
a(I4
I1
tp402
a(I2
I1334
I0
I54
tp403
tp404
sS'578392939495f525354556364'
p405
((lp406
g317
ag378
a(I2
I1027
I0
I38
tp407
tp408
sS'505183849295f4553'
p409
((lp410
(I5
I0
tp411
a(I5
I2
tp412
a(I5
I4
tp413
a(I3
I6
tp414
a(I1
I51
I0
I0
tp415
tp416
sS'828384939495f424344455354'
p417
((lp418
(I9
I5
tp419
a(I7
I3
tp420
a(I2
I1001
I0
I52
tp421
tp422
sS'838492939495f344244455354'
p423
((lp424
(I9
I2
tp425
a(I8
I2
tp426
a(I2
I1041
I0
I53
tp427
tp428
sS'838492939495f424344455463'
p429
((lp430
(I9
I5
tp431
a(I7
I3
tp432
a(I5
I3
tp433
a(I3
I3
tp434
a(I5
I5
tp435
ag303
a(I2
I997
I0
I70
tp436
tp437
sS'738283848593f424344455354'
p438
((lp439
(I9
I3
tp440
ag384
a(I2
I1096
I0
I39
tp441
tp442
sS'236673849394f43'
p443
((lp444
g294
a(I7
I5
tp445
a(I5
I7
tp446
a(I2
I153
I0
I48
tp447
tp448
sS'518384929495f455462'
p449
((lp450
(I9
I4
tp451
a(I7
I2
tp452
a(I5
I2
tp453
ag411
a(I2
I677
I0
I60
tp454
tp455
sS'738283848594f334244525354'
p456
((lp457
(I8
I3
tp458
a(I6
I3
tp459
a(I4
I1
tp460
a(I4
I3
tp461
a(I2
I3
tp462
a(I2
I323
I0
I57
tp463
tp464
sS'748283848593f424344455355'
p465
((lp466
g391
a(I7
I3
tp467
a(I2
I1164
I0
I51
tp468
tp469
sS'338384929394f42444565'
p470
((lp471
(I9
I3
tp472
a(I7
I5
tp473
a(I5
I5
tp474
a(I3
I5
tp475
a(I5
I3
tp476
a(I3
I1
tp477
a(I1
I46
I0
I0
tp478
tp479
sS'828384939495f444552535463'
p480
((lp481
(I8
I2
tp482
a(I9
I2
tp483
a(I2
I1617
I0
I52
tp484
tp485
sS'13335484f71'
p486
((lp487
(I1
I3
tp488
a(I0
I3
tp489
a(I1
I26
I0
I0
tp490
tp491
sS'4674828393f4044'
p492
((lp493
g334
a(I3
I6
tp494
a(I2
I287
I0
I40
tp495
tp496
sS'738283848594f434445525354'
p497
((lp498
g384
a(I7
I2
tp499
a(I7
I4
tp500
a(I2
I1391
I0
I56
tp501
tp502
sS'738283849394f344244535456'
p503
((lp504
(I8
I3
tp505
a(I6
I3
tp506
a(I4
I3
tp507
a(I4
I5
tp508
a(I2
I3
tp509
a(I2
I280
I0
I56
tp510
tp511
sS'2574828393f4460'
p512
((lp513
g482
a(I8
I4
tp514
a(I6
I4
tp515
a(I2
I223
I0
I41
tp516
tp517
sS'7482848593f30444553'
p518
((lp519
(I8
I5
tp520
a(I6
I3
tp521
a(I4
I3
tp522
a(I2
I318
I0
I48
tp523
tp524
sS'234051576694f43'
p525
((lp526
g509
a(I1
I3
tp527
a(I2
I160
I0
I37
tp528
tp529
sS'538384929394f4243444555'
p530
((lp531
g433
a(I3
I3
tp532
a(I5
I1
tp533
a(I2
I934
I0
I51
tp534
tp535
sS'838492939495f444552536372'
p536
((lp537
(I8
I4
tp538
a(I8
I2
tp539
a(I6
I2
tp540
a(I4
I2
tp541
a(I6
I4
tp542
a(I2
I976
I0
I62
tp543
tp544
sS'8392939495f444565'
p545
((lp546
g483
a(I7
I4
tp547
a(I5
I6
tp548
a(I3
I4
tp549
a(I5
I4
tp550
a(I1
I40
I0
I0
tp551
tp552
sS'738283849394f424345525354'
p553
((lp554
(I9
I4
tp555
a(I8
I5
tp556
a(I2
I1506
I0
I52
tp557
tp558
sS'248384929394f4264'
p559
((lp560
(I9
I3
tp561
a(I7
I5
tp562
a(I5
I3
tp563
a(I3
I1
tp564
a(I1
I41
I0
I0
tp565
tp566
sS'737482838485f424344455354'
p567
((lp568
g420
a(I7
I5
tp569
ag391
a(I2
I1498
I0
I52
tp570
tp571
sS'828384939495f434445525463'
p572
((lp573
(I9
I5
tp574
a(I7
I3
tp575
a(I5
I3
tp576
a(I3
I3
tp577
a(I5
I5
tp578
ag353
a(I2
I871
I0
I58
tp579
tp580
sS'248384929394f4245'
p581
((lp582
(I9
I2
tp583
a(I7
I4
tp584
a(I2
I242
I0
I54
tp585
tp586
sS'247483849394f4244'
p587
((lp588
(I2
I4
tp589
a(I1
I3
tp590
a(I2
I277
I0
I51
tp591
tp592
sS'738283849394f424344455355'
p593
((lp594
(I9
I4
tp595
ag520
a(I2
I1367
I0
I49
tp596
tp597
sS'2535647483f90'
p598
((lp599
(I3
I5
tp600
ag310
a(I2
I152
I0
I35
tp601
tp602
sS'828384939495f424344455253'
p603
((lp604
(I9
I5
tp605
a(I7
I3
tp606
a(I2
I1169
I0
I52
tp607
tp608
sS'828384939495f434452535463'
p609
((lp610
g482
a(I9
I2
tp611
a(I2
I1315
I0
I52
tp612
tp613
sS'235762667394f45'
p614
((lp615
(I7
I3
tp616
a(I5
I1
tp617
a(I2
I240
I0
I43
tp618
tp619
sS'22335484f61'
p620
((lp621
(I2
I2
tp622
ag488
a(I2
I154
I0
I26
tp623
tp624
sS'52556483fb2'
p625
((lp626
(I6
I4
tp627
a(I4
I6
tp628
a(I2
I181
I0
I29
tp629
tp630
sS'2564747583f4480'
p631
((lp632
g393
a(I5
I3
tp633
ag600
a(I1
I5
tp634
a(I2
I182
I0
I42
tp635
tp636
sS'828384939495f344244535455'
p637
((lp638
(I9
I5
tp639
ag616
a(I2
I850
I0
I54
tp640
tp641
sS'778392939495f525354556364'
p642
((lp643
(I7
I7
tp644
ag316
a(I2
I1166
I0
I37
tp645
tp646
sS'258392939495f525354667787'
p647
((lp648
(I2
I5
tp649
a(I1
I4
tp650
a(I2
I466
I0
I44
tp651
tp652
sS'838492939495f434445525354'
p653
((lp654
(I9
I2
tp655
ag482
a(I2
I1071
I0
I53
tp656
tp657
sS'3674828393f4450'
p658
((lp659
g494
a(I2
I5
tp660
a(I2
I205
I0
I39
tp661
tp662
sS'237382849394f425455'
p663
((lp664
g426
a(I6
I4
tp665
a(I4
I4
tp666
a(I6
I6
tp667
a(I2
I368
I0
I51
tp668
tp669
sS'137483849394f4245'
p670
((lp671
g590
a(I0
I3
tp672
a(I1
I51
I0
I0
tp673
tp674
sS'148392939495f415354667787'
p675
((lp676
g650
a(I0
I3
tp677
a(I1
I42
I0
I0
tp678
tp679
sS'358384929394f4255'
p680
((lp681
g303
ag589
a(I2
I321
I0
I53
tp682
tp683
sS'368392939495f525354636677'
p684
((lp685
g379
ag649
a(I2
I782
I0
I42
tp686
tp687
sS'64839394f42436392'
p688
((lp689
(I9
I4
tp690
a(I7
I2
tp691
a(I5
I4
tp692
a(I3
I2
tp693
a(I5
I2
tp694
a(I2
I183
I0
I39
tp695
tp696
sS'838492939495f435253545563'
p697
((lp698
(I8
I4
tp699
a(I8
I2
tp700
a(I10
I4
tp701
a(I8
I6
tp702
a(I2
I1472
I0
I52
tp703
tp704
sS'738283848593f424344525354'
p705
((lp706
(I9
I3
tp707
a(I9
I4
tp708
a(I2
I1214
I0
I41
tp709
tp710
sS'235766738494f44'
p711
((lp712
(I8
I4
tp713
a(I6
I2
tp714
a(I2
I201
I0
I47
tp715
tp716
sS'828384939495f424345525354'
p717
((lp718
(I9
I5
tp719
a(I7
I3
tp720
a(I2
I989
I0
I52
tp721
tp722
sS'237382848594f345354'
p723
((lp724
g462
a(I4
I5
tp725
a(I6
I3
tp726
a(I4
I3
tp727
a(I1
I73
I0
I0
tp728
tp729
sS'134051576694f44'
p730
((lp731
g527
a(I0
I3
tp732
a(I1
I34
I0
I0
tp733
tp734
sS'33647484f41'
p735
((lp736
g386
a(I5
I4
tp737
a(I2
I109
I0
I28
tp738
tp739
sS'738283849394f424352535463'
p740
((lp741
(I8
I4
tp742
a(I6
I2
tp743
a(I4
I4
tp744
ag627
a(I2
I1297
I0
I48
tp745
tp746
sS'738283849394f434445525463'
p747
((lp748
g367
a(I5
I3
tp749
a(I3
I3
tp750
a(I5
I5
tp751
a(I3
I5
tp752
a(I2
I1500
I0
I47
tp753
tp754
sS'838492939495f424344455355'
p755
((lp756
g583
a(I8
I2
tp757
a(I2
I848
I0
I53
tp758
tp759
sS'838692939495f435253545564'
p760
((lp761
g702
ag644
a(I2
I804
I0
I52
tp762
tp763
sS'33546484f51'
p764
((lp765
g361
a(I4
I4
tp766
ag622
a(I2
I114
I0
I30
tp767
tp768
sS'52648393fa1'
p769
((lp770
(I9
I3
tp771
a(I7
I3
tp772
a(I5
I5
tp773
a(I2
I105
I0
I30
tp774
tp775
sS'235157626694f44'
p776
((lp777
g714
a(I4
I0
tp778
a(I2
I178
I0
I40
tp779
tp780
sS'74828493f304245'
p781
((lp782
g391
a(I7
I5
tp783
a(I7
I3
tp784
a(I2
I206
I0
I31
tp785
tp786
sS'64737484f303445'
p787
((lp788
g784
a(I5
I5
tp789
a(I3
I5
tp790
a(I3
I3
tp791
a(I2
I133
I0
I32
tp792
tp793
sssI3
(dp794
g2
(dp795
S'838485929394f434445525354'
p796
((lp797
g220
a(I6
I3
tp798
a(I3
I21371
I403
I53
tp799
tp800
sS'8284a5f7077'
p801
((lp802
(I7
I7
tp803
a(I8
I6
tp804
a(I3
I782
I82
I7
tp805
tp806
sS'738384929394f434445525354'
p807
((lp808
(I4
I4
tp809
a(I4
I2
tp810
a(I6
I4
tp811
a(I8
I2
tp812
a(I10
I2
tp813
a(I3
I40219
I988
I58
tp814
tp815
sS'828384929394f445253546365'
p816
((lp817
(I6
I5
tp818
a(I6
I6
tp819
a(I3
I42216
I827
I56
tp820
tp821
sS'728283848693f435253545563'
p822
((lp823
(I5
I2
tp824
a(I7
I4
tp825
a(I9
I2
tp826
a(I3
I20465
I531
I45
tp827
tp828
sS'8294a4f7096'
p829
((lp830
(I9
I6
tp831
a(I10
I6
tp832
a(I3
I1236
I123
I9
tp833
tp834
sS'828384939495f434445525354'
p835
((lp836
g228
a(I6
I3
tp837
a(I3
I18061
I447
I53
tp838
tp839
sS'82b4f70c5'
p840
((lp841
(I12
I5
tp842
a(I13
I4
tp843
a(I1
I11
I0
I0
tp844
tp845
sS'738485929394f434452535463'
p846
((lp847
g158
a(I4
I2
tp848
a(I6
I2
tp849
a(I6
I4
tp850
a(I8
I2
tp851
a(I10
I4
tp852
a(I3
I43419
I1191
I60
tp853
tp854
sS'7282838693f435354556392'
p855
((lp856
(I5
I3
tp857
a(I7
I3
tp858
a(I9
I1
tp859
a(I3
I37034
I1133
I44
tp860
tp861
sS'9495f444552535481'
p862
((lp863
g220
a(I4
I3
tp864
a(I6
I1
tp865
a(I3
I6889
I94
I55
tp866
tp867
sS'33728386f54559192'
p868
((lp869
(I9
I1
tp870
a(I9
I3
tp871
a(I7
I3
tp872
a(I7
I1
tp873
a(I3
I13092
I584
I28
tp874
tp875
sS'828384929394f525354636466'
p876
((lp877
g819
ag803
a(I3
I49588
I1083
I59
tp878
tp879
sS'7384a5f6177'
p880
((lp881
(I6
I1
tp882
a(I7
I0
tp883
a(I3
I1569
I208
I6
tp884
tp885
sS'82a4b4f70a6'
p886
((lp887
g832
a(I11
I6
tp888
a(I3
I1177
I106
I8
tp889
tp890
sS'738384f527795'
p891
((lp892
(I5
I2
tp893
ag882
a(I3
I2473
I196
I16
tp894
tp895
sS'8283929394a4f445253546366'
p896
((lp897
(I4
I4
tp898
a(I6
I2
tp899
a(I6
I4
tp900
a(I3
I77549
I1895
I52
tp901
tp902
sS'728492939495f434445525354'
p903
((lp904
g190
a(I6
I1
tp905
a(I8
I3
tp906
a(I8
I5
tp907
a(I10
I3
tp908
a(I8
I1
tp909
a(I3
I28243
I447
I80
tp910
tp911
sS'568493a2f52535463'
p912
((lp913
(I5
I2
tp914
a(I7
I4
tp915
a(I9
I4
tp916
a(I9
I2
tp917
a(I11
I2
tp918
a(I3
I5302
I118
I35
tp919
tp920
sS'828384869394f434452535463'
p921
((lp922
(I4
I4
tp923
a(I5
I5
tp924
a(I3
I42136
I1004
I55
tp925
tp926
sS'2286f54557192'
p927
((lp928
g873
a(I8
I1
tp929
a(I3
I3169
I110
I25
tp930
tp931
sS'1286f54558192'
p932
((lp933
(I5
I5
tp934
a(I4
I4
tp935
a(I2
I5111
I211
I32
tp936
tp937
sS'81849294f4352535463'
p938
((lp939
(I5
I3
tp940
a(I7
I3
tp941
a(I9
I5
tp942
a(I9
I3
tp943
a(I9
I1
tp944
a(I7
I1
tp945
a(I1
I26
I0
I0
tp946
tp947
sS'46f535463b2'
p948
((lp949
(I5
I3
tp950
a(I5
I5
tp951
a(I3
I7
tp952
a(I1
I16
I0
I0
tp953
tp954
sS'9394f445253546181'
p955
((lp956
g909
a(I7
I2
tp957
a(I3
I16659
I310
I54
tp958
tp959
sS'828492939495f434445525354'
p960
((lp961
(I4
I5
tp962
a(I6
I3
tp963
a(I3
I18909
I370
I53
tp964
tp965
sS'828494f7086'
p966
((lp967
g804
ag831
a(I3
I1303
I138
I9
tp968
tp969
sS'849394a1f4345525354'
p970
((lp971
(I4
I5
tp972
a(I6
I3
tp973
a(I3
I6765
I169
I39
tp974
tp975
sS'849394a2f4352535463'
p976
((lp977
(I4
I3
tp978
a(I6
I5
tp979
a(I3
I16151
I389
I31
tp980
tp981
sS'82a4b5f70b6'
p982
((lp983
g888
ag842
a(I3
I1191
I110
I7
tp984
tp985
sS'828392939495f434452535463'
p986
((lp987
(I4
I3
tp988
ag818
a(I3
I59439
I1472
I48
tp989
tp990
sS'838492939495f424344455354'
p991
((lp992
(I4
I2
tp993
ag914
a(I3
I24013
I539
I52
tp994
tp995
sS'558283849294f5253546377'
p996
((lp997
(I5
I3
tp998
a(I7
I3
tp999
a(I9
I1
tp1000
a(I9
I3
tp1001
a(I9
I5
tp1002
a(I3
I16984
I452
I37
tp1003
tp1004
sS'9294f445253546172'
p1005
((lp1006
g865
a(I4
I3
tp1007
a(I4
I5
tp1008
a(I6
I3
tp1009
a(I8
I1
tp1010
a(I10
I3
tp1011
a(I8
I5
tp1012
a(I1
I51
I0
I0
tp1013
tp1014
ssg65
(dp1015
S'828384939495f434452535455'
p1016
((lp1017
(I9
I5
tp1018
a(I7
I3
tp1019
a(I3
I26804
I869
I51
tp1020
tp1021
sS'5375828694f67'
p1022
((lp1023
(I9
I4
tp1024
a(I8
I5
tp1025
a(I3
I2548
I26
I39
tp1026
tp1027
sS'828384939495f424445525354'
p1028
((lp1029
(I9
I5
tp1030
a(I7
I3
tp1031
a(I3
I25172
I784
I51
tp1032
tp1033
sS'7382849394f365355'
p1034
((lp1035
(I8
I2
tp1036
a(I6
I4
tp1037
a(I4
I6
tp1038
a(I2
I6
tp1039
a(I3
I14143
I250
I44
tp1040
tp1041
sS'157382839394f142433'
p1042
((lp1043
(I1
I5
tp1044
a(I0
I4
tp1045
a(I1
I50
I0
I0
tp1046
tp1047
sS'828384869293f525354626364'
p1048
((lp1049
(I8
I4
tp1050
ag1024
a(I3
I43988
I912
I61
tp1051
tp1052
sS'5275828694f56'
p1053
((lp1054
(I5
I2
tp1055
a(I5
I3
tp1056
a(I3
I3148
I34
I38
tp1057
tp1058
sS'357483849394f4254'
p1059
((lp1060
(I8
I3
tp1061
a(I6
I5
tp1062
a(I4
I3
tp1063
a(I4
I1
tp1064
a(I1
I18
I0
I0
tp1065
tp1066
sS'738283849394f424452535455'
p1067
((lp1068
(I8
I3
tp1069
a(I6
I3
tp1070
a(I4
I1
tp1071
a(I4
I3
tp1072
a(I4
I5
tp1073
a(I3
I7192
I148
I53
tp1074
tp1075
sS'738283849394f333436424553'
p1076
((lp1077
(I8
I4
tp1078
a(I6
I2
tp1079
a(I4
I4
tp1080
a(I4
I6
tp1081
a(I2
I6
tp1082
a(I3
I13486
I286
I56
tp1083
tp1084
sS'3541546482fb6'
p1085
((lp1086
(I6
I4
tp1087
a(I4
I4
tp1088
a(I2
I6
tp1089
a(I3
I5173
I54
I35
tp1090
tp1091
sS'3142638494fb5'
p1092
((lp1093
(I3
I1
tp1094
a(I2
I2
tp1095
a(I3
I5471
I117
I39
tp1096
tp1097
sS'727382838493f434451525354'
p1098
((lp1099
(I9
I3
tp1100
a(I7
I5
tp1101
a(I3
I49582
I1179
I66
tp1102
tp1103
sS'267382839394f243334'
p1104
((lp1105
g1082
ag1044
a(I3
I25605
I806
I45
tp1106
tp1107
sS'738283849394f435253545566'
p1108
((lp1109
(I8
I4
tp1110
a(I6
I2
tp1111
a(I4
I2
tp1112
a(I4
I4
tp1113
a(I6
I4
tp1114
a(I4
I6
tp1115
a(I3
I22095
I561
I60
tp1116
tp1117
sS'838492939495f334244455354'
p1118
((lp1119
(I9
I2
tp1120
a(I8
I2
tp1121
a(I3
I30563
I1181
I54
tp1122
tp1123
sS'838492939495f424445525354'
p1124
((lp1125
(I9
I2
tp1126
ag1036
a(I3
I38405
I1448
I53
tp1127
tp1128
sS'8283849394f455254636477'
p1129
((lp1130
(I9
I3
tp1131
a(I7
I3
tp1132
a(I5
I3
tp1133
a(I5
I5
tp1134
a(I3
I5
tp1135
a(I3
I42103
I934
I61
tp1136
tp1137
sS'3574828384f60'
p1138
((lp1139
(I8
I2
tp1140
a(I7
I1
tp1141
a(I3
I1630
I26
I11
tp1142
tp1143
sS'4042637273fb5'
p1144
((lp1145
(I7
I2
tp1146
a(I7
I4
tp1147
a(I5
I2
tp1148
a(I3
I2
tp1149
a(I3
I4266
I49
I36
tp1150
tp1151
sS'738283849394f424445525463'
p1152
((lp1153
g1031
a(I5
I3
tp1154
a(I3
I37575
I748
I55
tp1155
tp1156
sS'8384929394f26435354'
p1157
((lp1158
(I9
I3
tp1159
a(I7
I3
tp1160
a(I3
I8810
I162
I47
tp1161
tp1162
sS'838492939495f424344455463'
p1163
((lp1164
(I9
I5
tp1165
a(I7
I3
tp1166
a(I5
I3
tp1167
a(I3
I3
tp1168
a(I5
I5
tp1169
a(I3
I5
tp1170
a(I3
I61731
I1279
I68
tp1171
tp1172
sS'828384939495f444552535463'
p1173
((lp1174
(I9
I5
tp1175
a(I8
I6
tp1176
a(I3
I34758
I870
I54
tp1177
tp1178
sS'7483849395f425467'
p1179
((lp1180
(I8
I3
tp1181
a(I6
I5
tp1182
a(I4
I3
tp1183
a(I4
I1
tp1184
a(I3
I10912
I131
I52
tp1185
tp1186
sS'828384869394f435253545563'
p1187
((lp1188
(I9
I4
tp1189
a(I7
I2
tp1190
a(I3
I29043
I573
I59
tp1191
tp1192
sS'72838693f435455639192'
p1193
((lp1194
(I9
I3
tp1195
a(I7
I3
tp1196
a(I5
I3
tp1197
a(I3
I3
tp1198
a(I3
I21179
I798
I31
tp1199
tp1200
sS'467382839394f5377'
p1201
((lp1202
(I8
I3
tp1203
a(I6
I3
tp1204
a(I3
I12152
I90
I56
tp1205
tp1206
sS'354446638394fb6'
p1207
((lp1208
g1115
a(I2
I4
tp1209
a(I3
I6635
I106
I52
tp1210
tp1211
sS'358384929394f4253'
p1212
((lp1213
g1126
a(I7
I4
tp1214
a(I3
I7406
I77
I54
tp1215
tp1216
sS'1573849394f33'
p1217
((lp1218
(I1
I5
tp1219
a(I0
I4
tp1220
a(I1
I37
I0
I0
tp1221
tp1222
sS'828384939495f434452535463'
p1223
((lp1224
(I9
I5
tp1225
a(I8
I6
tp1226
a(I3
I35839
I839
I54
tp1227
tp1228
sS'2242637394fb4'
p1229
((lp1230
(I6
I3
tp1231
a(I8
I3
tp1232
a(I10
I5
tp1233
a(I12
I3
tp1234
a(I1
I10
I0
I0
tp1235
tp1236
sS'838492939495f434445525354'
p1237
((lp1238
g1120
a(I8
I2
tp1239
a(I3
I34787
I1202
I53
tp1240
tp1241
sS'828384939495f424552535455'
p1242
((lp1243
(I9
I5
tp1244
a(I7
I3
tp1245
a(I3
I27999
I920
I51
tp1246
tp1247
sS'56638394f47'
p1248
((lp1249
(I5
I6
tp1250
a(I4
I5
tp1251
a(I3
I1740
I28
I30
tp1252
tp1253
sS'56738394f37'
p1254
((lp1255
g1160
a(I6
I3
tp1256
a(I3
I1859
I10
I30
tp1257
tp1258
sS'3240426373fc4'
p1259
((lp1260
(I4
I2
tp1261
a(I3
I1
tp1262
a(I2
I7318
I129
I43
tp1263
tp1264
sS'267383849394f23333442'
p1265
((lp1266
(I2
I6
tp1267
a(I1
I5
tp1268
a(I3
I10190
I208
I46
tp1269
tp1270
sS'8283849394f4245525462'
p1271
((lp1272
(I9
I3
tp1273
a(I7
I3
tp1274
a(I5
I1
tp1275
a(I5
I3
tp1276
a(I5
I5
tp1277
a(I3
I5
tp1278
a(I3
I41921
I905
I59
tp1279
tp1280
sS'738283849394f333435424554'
p1281
((lp1282
g1121
a(I6
I4
tp1283
a(I4
I4
tp1284
ag1267
a(I3
I26260
I667
I52
tp1285
tp1286
sS'36456383f67'
p1287
((lp1288
(I3
I6
tp1289
a(I2
I5
tp1290
a(I3
I2688
I42
I27
tp1291
tp1292
sS'828384869394f445253546263'
p1293
((lp1294
g690
a(I7
I2
tp1295
a(I9
I2
tp1296
a(I3
I60958
I1692
I59
tp1297
tp1298
sS'3582838494f51'
p1299
((lp1300
(I9
I4
tp1301
a(I7
I4
tp1302
a(I3
I4825
I62
I38
tp1303
tp1304
sS'838492939495f424344455254'
p1305
((lp1306
(I9
I2
tp1307
a(I8
I2
tp1308
a(I3
I17977
I461
I54
tp1309
tp1310
sS'4163849395f87'
p1311
((lp1312
g1184
a(I4
I2
tp1313
a(I3
I3544
I59
I38
tp1314
tp1315
sS'456673829394f74'
p1316
((lp1317
g1036
a(I6
I4
tp1318
a(I8
I4
tp1319
a(I1
I5
I0
I0
tp1320
tp1321
sS'2635415482fc5'
p1322
((lp1323
(I4
I1
tp1324
a(I3
I0
tp1325
a(I2
I4855
I76
I37
tp1326
tp1327
sS'3571748384f70'
p1328
((lp1329
(I8
I4
tp1330
a(I8
I2
tp1331
a(I6
I0
tp1332
a(I8
I0
tp1333
a(I1
I24
I0
I0
tp1334
tp1335
sS'828384939495f424452535463'
p1336
((lp1337
g719
a(I8
I6
tp1338
a(I3
I53804
I1456
I52
tp1339
tp1340
sS'444663739394f97'
p1341
((lp1342
g1019
a(I5
I3
tp1343
a(I3
I5
tp1344
a(I3
I6614
I81
I50
tp1345
tp1346
sS'4072738384f435497'
p1347
((lp1348
(I8
I4
tp1349
a(I8
I2
tp1350
a(I6
I4
tp1351
a(I4
I4
tp1352
ag1261
a(I3
I7020
I90
I45
tp1353
tp1354
sS'72828386f425354626392'
p1355
((lp1356
(I7
I2
tp1357
a(I5
I2
tp1358
a(I3
I2
tp1359
a(I3
I12285
I612
I25
tp1360
tp1361
sS'73839294f2665'
p1362
((lp1363
(I9
I2
tp1364
a(I7
I4
tp1365
ag1250
a(I3
I3443
I41
I34
tp1366
tp1367
sS'32718386f535463b2'
p1368
((lp1369
g1359
a(I2
I2
tp1370
a(I3
I7302
I328
I29
tp1371
tp1372
sS'7273828384f435152535486'
p1373
((lp1374
(I8
I2
tp1375
a(I6
I4
tp1376
a(I4
I2
tp1377
a(I6
I2
tp1378
a(I4
I0
tp1379
a(I3
I16490
I244
I73
tp1380
tp1381
sS'358384929394f4264'
p1382
((lp1383
(I9
I3
tp1384
a(I7
I5
tp1385
a(I5
I3
tp1386
a(I3
I1
tp1387
a(I1
I49
I0
I0
tp1388
tp1389
sS'828384869394f425253546263'
p1390
((lp1391
g690
ag1357
a(I3
I75972
I1892
I63
tp1392
tp1393
sS'828384939495f424344455253'
p1394
((lp1395
g1030
a(I7
I3
tp1396
a(I3
I23895
I995
I50
tp1397
tp1398
sS'738283849394f424344525354'
p1399
((lp1400
(I9
I4
tp1401
ag1146
a(I3
I40028
I1010
I49
tp1402
tp1403
sS'8384929395f425457'
p1404
((lp1405
(I9
I2
tp1406
a(I7
I4
tp1407
a(I3
I5666
I72
I48
tp1408
tp1409
sS'3386f54557192'
p1410
((lp1411
(I3
I3
tp1412
a(I2
I2
tp1413
a(I3
I1755
I116
I15
tp1414
tp1415
sS'45638394f57'
p1416
((lp1417
(I9
I4
tp1418
a(I7
I2
tp1419
a(I5
I4
tp1420
ag1289
a(I3
I2082
I37
I32
tp1421
tp1422
sS'828384939495f333442455354'
p1423
((lp1424
g1175
a(I7
I3
tp1425
a(I3
I14771
I347
I55
tp1426
tp1427
sS'2130316373fc3'
p1428
((lp1429
g1396
a(I6
I2
tp1430
a(I2
I3941
I91
I29
tp1431
tp1432
sS'738283849394f425253545564'
p1433
((lp1434
(I8
I3
tp1435
a(I6
I3
tp1436
a(I4
I1
tp1437
a(I4
I3
tp1438
a(I6
I5
tp1439
a(I4
I5
tp1440
a(I3
I6853
I156
I51
tp1441
tp1442
sS'2673849394f43'
p1443
((lp1444
g1039
ag1219
a(I3
I3152
I47
I30
tp1445
tp1446
sS'5375828586f77'
p1447
((lp1448
g1025
a(I8
I7
tp1449
a(I6
I7
tp1450
a(I1
I40
I0
I0
tp1451
tp1452
sS'357483849394f4263'
p1453
((lp1454
g110
a(I7
I3
tp1455
a(I5
I3
tp1456
a(I3
I1
tp1457
a(I1
I26
I0
I0
tp1458
tp1459
sS'3541647482fa6'
p1460
((lp1461
(I7
I4
tp1462
a(I5
I4
tp1463
a(I3
I5304
I84
I32
tp1464
tp1465
sS'828386929394f525462636473'
p1466
((lp1467
g1296
a(I7
I4
tp1468
a(I7
I2
tp1469
a(I3
I38083
I879
I59
tp1470
tp1471
sS'3582838494f527477'
p1472
((lp1473
(I8
I3
tp1474
a(I8
I5
tp1475
a(I6
I3
tp1476
ag1324
a(I3
I5504
I75
I37
tp1477
tp1478
sS'4263849395f97'
p1479
((lp1480
(I9
I5
tp1481
a(I7
I3
tp1482
a(I5
I3
tp1483
ag1094
a(I3
I4042
I71
I36
tp1484
tp1485
sS'32828386f535463a1'
p1486
((lp1487
(I8
I2
tp1488
a(I7
I1
tp1489
a(I3
I6888
I390
I29
tp1490
tp1491
sS'243544638394fc5'
p1492
((lp1493
g1344
a(I1
I3
tp1494
a(I2
I10343
I121
I55
tp1495
tp1496
sS'22718386f535463c3'
p1497
((lp1498
(I8
I6
tp1499
a(I7
I5
tp1500
a(I2
I8708
I965
I31
tp1501
tp1502
sS'466373829394f5387'
p1503
((lp1504
(I8
I2
tp1505
a(I6
I4
tp1506
a(I6
I2
tp1507
a(I4
I4
tp1508
a(I3
I6853
I55
I58
tp1509
tp1510
sS'7383849294f26535463'
p1511
((lp1512
(I8
I4
tp1513
a(I6
I2
tp1514
a(I4
I4
tp1515
a(I6
I4
tp1516
a(I3
I15489
I389
I51
tp1517
tp1518
sS'157383849394f13233442'
p1519
((lp1520
g1268
a(I0
I4
tp1521
a(I1
I51
I0
I0
tp1522
tp1523
sS'838492939495f424345535462'
p1524
((lp1525
(I9
I4
tp1526
a(I7
I2
tp1527
a(I5
I2
tp1528
a(I3
I4
tp1529
a(I5
I6
tp1530
a(I3
I71409
I1927
I59
tp1531
tp1532
sS'3031326373fc4'
p1533
((lp1534
g1149
a(I2
I1
tp1535
a(I2
I4263
I96
I32
tp1536
tp1537
sS'2286f54558192'
p1538
((lp1539
g1413
a(I1
I2
tp1540
a(I3
I1588
I192
I7
tp1541
tp1542
sS'838492939495f424344535455'
p1543
((lp1544
g1126
ag1505
a(I3
I32653
I1100
I54
tp1545
tp1546
sS'7282869394f5462636492'
p1547
((lp1548
(I9
I3
tp1549
a(I9
I1
tp1550
a(I7
I3
tp1551
a(I5
I3
tp1552
a(I7
I5
tp1553
a(I3
I15381
I557
I43
tp1554
tp1555
sS'7275828694f4562'
p1556
((lp1557
g1469
ag1055
a(I3
I7533
I130
I36
tp1558
tp1559
sS'14456383f87'
p1560
((lp1561
(I1
I4
tp1562
a(I0
I3
tp1563
a(I1
I26
I0
I0
tp1564
tp1565
sS'457382849394f6475'
p1566
((lp1567
g1110
a(I6
I6
tp1568
a(I3
I800
I34
I1
tp1569
tp1570
sS'838492939495f434445535464'
p1571
((lp1572
(I9
I5
tp1573
a(I7
I3
tp1574
a(I5
I5
tp1575
a(I3
I5
tp1576
a(I3
I63154
I1537
I56
tp1577
tp1578
sS'2242638494fc4'
p1579
((lp1580
(I8
I4
tp1581
a(I7
I3
tp1582
a(I2
I6876
I133
I42
tp1583
tp1584
sS'25456383f77'
p1585
((lp1586
g1290
ag1562
a(I3
I1457
I17
I20
tp1587
tp1588
sS'3132406373fc3'
p1589
((lp1590
g1379
a(I3
I0
tp1591
a(I2
I6026
I111
I37
tp1592
tp1593
sS'828384869394f455253546364'
p1594
((lp1595
g1176
a(I7
I6
tp1596
a(I3
I65608
I1971
I60
tp1597
tp1598
sS'3541748284f97'
p1599
((lp1600
(I8
I4
tp1601
ag1087
a(I3
I4180
I36
I38
tp1602
tp1603
sS'7282848693f435354556392'
p1604
((lp1605
(I8
I4
tp1606
a(I8
I3
tp1607
a(I3
I38297
I1407
I45
tp1608
tp1609
sS'4174849395f77'
p1610
((lp1611
g1407
a(I6
I3
tp1612
a(I3
I4522
I83
I41
tp1613
tp1614
sS'828384939495f424452535455'
p1615
((lp1616
g1018
a(I7
I3
tp1617
a(I3
I18052
I346
I53
tp1618
tp1619
sS'4042727383fa6'
p1620
((lp1621
(I8
I3
tp1622
a(I6
I3
tp1623
a(I3
I3860
I56
I35
tp1624
tp1625
sS'2130316263fc4'
p1626
((lp1627
g1591
a(I1
I2
tp1628
a(I2
I3982
I91
I29
tp1629
tp1630
sS'354446639394fa7'
p1631
((lp1632
(I9
I3
tp1633
a(I8
I3
tp1634
a(I3
I5475
I49
I47
tp1635
tp1636
sS'2630355482fc4'
p1637
((lp1638
g1463
a(I4
I3
tp1639
a(I2
I4747
I101
I33
tp1640
tp1641
sS'3541828494f87'
p1642
((lp1643
(I9
I4
tp1644
ag1462
a(I3
I4346
I41
I38
tp1645
tp1646
sS'3142638493fa6'
p1647
((lp1648
(I9
I3
tp1649
a(I9
I4
tp1650
a(I3
I4401
I78
I36
tp1651
tp1652
sS'1286f44548192'
p1653
((lp1654
g1540
a(I0
I3
tp1655
a(I1
I10
I0
I0
tp1656
tp1657
sss.