(dp0
I1
(dp1
S'north'
p2
(dp3
S'838492939495f424344455354'
p4
((lp5
(I4
I2
tp6
a(I6
I4
tp7
a(I1
I59
I0
I0
tp8
tp9
ssS'south'
p10
(dp11
S'838492939495f424344455463'
p12
((lp13
(I9
I5
tp14
a(I7
I3
tp15
a(I5
I3
tp16
a(I3
I3
tp17
a(I5
I5
tp18
a(I3
I5
tp19
a(I1
I79
I0
I0
tp20
tp21
sssI2
(dp22
g2
(dp23
S'7483f5253548687a5'
p24
((lp25
(I8
I7
tp26
a(I8
I5
tp27
a(I6
I3
tp28
a(I2
I292
I0
I43
tp29
tp30
sS'738492939495f434445525354'
p31
((lp32
(I4
I5
tp33
a(I6
I3
tp34
a(I8
I3
tp35
a(I8
I5
tp36
a(I10
I3
tp37
a(I8
I1
tp38
a(I2
I534
I0
I70
tp39
tp40
sS'84f5253546386a5'
p41
((lp42
(I5
I3
tp43
a(I7
I3
tp44
a(I9
I5
tp45
a(I1
I9
I0
I0
tp46
tp47
sS'75838492f4344525354a5'
p48
((lp49
(I4
I4
tp50
a(I4
I2
tp51
a(I6
I4
tp52
a(I8
I6
tp53
a(I2
I772
I0
I54
tp54
tp55
sS'838492939495f424344455354'
p56
((lp57
(I4
I2
tp58
a(I5
I2
tp59
a(I2
I697
I0
I52
tp60
tp61
sS'748384929395f434445525354'
p62
((lp63
(I4
I5
tp64
a(I6
I3
tp65
a(I8
I5
tp66
a(I10
I5
tp67
a(I2
I620
I0
I55
tp68
tp69
sS'748392f4352535486a5'
p70
((lp71
(I4
I3
tp72
a(I6
I3
tp73
a(I8
I5
tp74
ag26
a(I2
I322
I0
I44
tp75
tp76
ssg10
(dp77
S'56637394f37'
p78
((lp79
(I7
I3
tp80
a(I5
I3
tp81
a(I2
I98
I0
I30
tp82
tp83
sS'73839294f2665'
p84
((lp85
(I9
I2
tp86
a(I7
I4
tp87
a(I5
I6
tp88
a(I2
I149
I0
I34
tp89
tp90
sS'8384929394f26435354'
p91
((lp92
(I9
I3
tp93
ag80
a(I2
I765
I0
I45
tp94
tp95
sS'838492939495f424344455464'
p96
((lp97
(I9
I3
tp98
a(I7
I5
tp99
a(I5
I3
tp100
a(I3
I3
tp101
a(I5
I5
tp102
a(I3
I5
tp103
a(I2
I1271
I0
I67
tp104
tp105
sS'838492939495f424344455463'
p106
((lp107
(I9
I5
tp108
a(I7
I3
tp109
a(I5
I3
tp110
a(I3
I3
tp111
a(I5
I5
tp112
a(I3
I5
tp113
a(I2
I997
I0
I70
tp114
tp115
sS'358384929394f4264'
p116
((lp117
(I9
I3
tp118
a(I7
I5
tp119
a(I5
I3
tp120
a(I3
I1
tp121
a(I1
I41
I0
I0
tp122
tp123
sS'248384929495f4263'
p124
((lp125
(I9
I2
tp126
a(I7
I4
tp127
a(I5
I2
tp128
a(I3
I2
tp129
a(I1
I28
I0
I0
tp130
tp131
sS'13234594f97'
p132
((lp133
(I2
I3
tp134
a(I0
I3
tp135
a(I1
I19
I0
I0
tp136
tp137
sS'838492939495f434445535464'
p138
((lp139
g14
a(I7
I3
tp140
a(I5
I5
tp141
a(I3
I5
tp142
a(I2
I1249
I0
I55
tp143
tp144
sS'33434594f77'
p145
((lp146
(I4
I3
tp147
ag134
a(I2
I116
I0
I29
tp148
tp149
sS'838492939495f424445535463'
p150
((lp151
(I9
I2
tp152
a(I7
I4
tp153
a(I5
I2
tp154
a(I3
I2
tp155
a(I2
I1330
I0
I55
tp156
tp157
sS'56738394f36'
p158
((lp159
(I8
I3
tp160
a(I6
I3
tp161
a(I2
I120
I0
I32
tp162
tp163
sS'23334594f87'
p164
((lp165
(I3
I3
tp166
a(I1
I3
tp167
a(I2
I115
I0
I29
tp168
tp169
sS'358384929495f4253'
p170
((lp171
g103
a(I2
I4
tp172
a(I2
I511
I0
I52
tp173
tp174
sS'53566394f47'
p175
((lp176
g88
a(I4
I5
tp177
a(I2
I124
I0
I29
tp178
tp179
sS'45536394f57'
p180
((lp181
g161
ag147
a(I2
I89
I0
I29
tp182
tp183
sS'7383849294f26535463'
p184
((lp185
(I8
I4
tp186
a(I6
I2
tp187
a(I4
I4
tp188
a(I6
I4
tp189
a(I2
I248
I0
I55
tp190
tp191
sS'43455394f67'
p192
((lp193
g81
ag166
a(I2
I95
I0
I29
tp194
tp195
sssI3
(dp196
g2
(dp197
S'62748393f445463a5'
p198
((lp199
(I4
I4
tp200
a(I6
I4
tp201
a(I8
I4
tp202
a(I8
I2
tp203
a(I10
I4
tp204
a(I3
I6851
I372
I36
tp205
tp206
sS'416373f33c2'
p207
((lp208
(I12
I2
tp209
a(I13
I3
tp210
a(I1
I14
I0
I0
tp211
tp212
sS'74838493f4445525354a5'
p213
((lp214
g64
a(I4
I3
tp215
a(I6
I3
tp216
a(I3
I28436
I528
I58
tp217
tp218
sS'738384929394f434445525354'
p219
((lp220
(I4
I4
tp221
a(I4
I2
tp222
a(I6
I4
tp223
a(I8
I2
tp224
a(I10
I2
tp225
a(I3
I41014
I968
I60
tp226
tp227
sS'24fb4c4'
p228
((lp229
(I11
I4
tp230
a(I13
I4
tp231
a(I1
I8
I0
I0
tp232
tp233
sS'73838494f4345525354a2'
p234
((lp235
(I4
I5
tp236
a(I6
I3
tp237
a(I3
I25269
I722
I46
tp238
tp239
sS'417394f33a2'
p240
((lp241
g225
a(I11
I2
tp242
a(I3
I2001
I149
I12
tp243
tp244
sS'417383f33b2'
p245
((lp246
g242
ag209
a(I3
I1847
I162
I9
tp247
tp248
sS'748384939495f434445525354'
p249
((lp250
g72
a(I6
I3
tp251
a(I8
I5
tp252
a(I10
I5
tp253
a(I3
I45513
I1216
I57
tp254
tp255
sS'44fa4a5'
p256
((lp257
g253
ag230
a(I3
I426
I14
I14
tp258
tp259
sS'838492939495f424344455354'
p260
((lp261
(I4
I2
tp262
a(I5
I2
tp263
a(I3
I24013
I539
I52
tp264
tp265
sS'34fa4b4'
p266
((lp267
g204
a(I12
I4
tp268
a(I3
I368
I30
I3
tp269
tp270
sS'42738394f5253a2'
p271
((lp272
(I5
I3
tp273
a(I5
I1
tp274
a(I3
I3
tp275
a(I3
I4789
I350
I23
tp276
tp277
ssg10
(dp278
S'3383849294f26'
p279
((lp280
(I9
I2
tp281
a(I7
I4
tp282
a(I3
I2980
I14
I37
tp283
tp284
sS'328384939495f44535465'
p285
((lp286
(I9
I3
tp287
a(I7
I5
tp288
a(I5
I5
tp289
a(I3
I3
tp290
a(I3
I8387
I139
I59
tp291
tp292
sS'838492939495f424344535463'
p293
((lp294
(I9
I2
tp295
a(I7
I4
tp296
a(I5
I2
tp297
a(I3
I2
tp298
a(I3
I60900
I1501
I57
tp299
tp300
sS'323383849495f5364'
p301
((lp302
(I9
I4
tp303
a(I7
I4
tp304
a(I5
I4
tp305
a(I5
I2
tp306
a(I1
I5
I0
I0
tp307
tp308
sS'3354638384f56'
p309
((lp310
(I6
I3
tp311
a(I4
I5
tp312
a(I6
I7
tp313
a(I1
I29
I0
I0
tp314
tp315
sS'838492939495f434445535464'
p316
((lp317
(I9
I5
tp318
a(I7
I3
tp319
a(I5
I5
tp320
a(I3
I5
tp321
a(I3
I63154
I1537
I56
tp322
tp323
sS'3363838494f46'
p324
((lp325
(I9
I4
tp326
a(I7
I2
tp327
a(I5
I4
tp328
a(I3
I5101
I63
I40
tp329
tp330
sS'8384929394f15435464'
p331
((lp332
g287
a(I7
I3
tp333
a(I5
I5
tp334
a(I5
I3
tp335
a(I3
I3
tp336
a(I3
I33479
I677
I49
tp337
tp338
sS'3374838494f36'
p339
((lp340
g282
ag311
a(I3
I3750
I37
I34
tp341
tp342
sS'358384929394f43535464'
p343
((lp344
g321
a(I2
I4
tp345
a(I3
I39635
I968
I53
tp346
tp347
sss.