(dp0
I1
(dp1
S'north'
p2
(dp3
S'3373b3f5685'
p4
((lp5
(I8
I5
tp6
a(I9
I4
tp7
a(I1
I17
I0
I0
tp8
tp9
sS'7384b3f535667'
p10
((lp11
(I6
I7
tp12
a(I7
I6
tp13
a(I1
I21
I0
I0
tp14
tp15
sS'8384b3f455356'
p16
((lp17
(I4
I5
tp18
ag12
a(I1
I25
I0
I0
tp19
tp20
sS'2373b3f5694'
p21
((lp22
g7
a(I10
I5
tp23
a(I1
I17
I0
I0
tp24
tp25
sS'4473b3f5676'
p26
((lp27
g13
ag6
a(I1
I17
I0
I0
tp28
tp29
sS'7483849394f43455356'
p30
((lp31
(I4
I3
tp32
a(I6
I3
tp33
a(I8
I5
tp34
a(I10
I3
tp35
a(I1
I38
I0
I0
tp36
tp37
sS'0373b3f56b5'
p38
((lp39
(ta(I0
I1
I0
I0
tp40
tp41
sS'838492939495f424344455354'
p42
((lp43
(I4
I2
tp44
a(I6
I4
tp45
a(I1
I59
I0
I0
tp46
tp47
sS'0473b3f56b5'
p48
((lp49
(ta(I0
I1
I0
I0
tp50
tp51
sS'338384929394f43455354'
p52
((lp53
(I5
I4
tp54
a(I3
I2
tp55
a(I3
I4
tp56
a(I5
I6
tp57
a(I1
I38
I0
I0
tp58
tp59
sS'1373b3f56a5'
p60
((lp61
g23
a(I11
I5
tp62
a(I1
I17
I0
I0
tp63
tp64
ssS'south'
p65
(dp66
S'4473b3f5685'
p67
((lp68
(I4
I4
tp69
a(I3
I3
tp70
a(I1
I25
I0
I0
tp71
tp72
sS'3373b3f5694'
p73
((lp74
g70
a(I2
I3
tp75
a(I1
I25
I0
I0
tp76
tp77
sS'838492939495f424344455463'
p78
((lp79
(I9
I5
tp80
a(I7
I3
tp81
a(I5
I3
tp82
a(I3
I3
tp83
a(I5
I5
tp84
a(I3
I5
tp85
a(I1
I79
I0
I0
tp86
tp87
sS'7384b3f535676'
p88
((lp89
(I8
I4
tp90
a(I6
I2
tp91
ag69
a(I1
I26
I0
I0
tp92
tp93
sS'8384929394f43455356'
p94
((lp95
(I9
I2
tp96
a(I7
I4
tp97
a(I1
I50
I0
I0
tp98
tp99
sS'1373b3f56b5'
p100
((lp101
(I1
I3
tp102
a(I0
I3
tp103
a(I1
I18
I0
I0
tp104
tp105
sS'838493f455356a3'
p106
((lp107
(I9
I3
tp108
a(I11
I3
tp109
a(I1
I28
I0
I0
tp110
tp111
sS'358384929394f4264'
p112
((lp113
(I9
I3
tp114
a(I7
I5
tp115
a(I5
I3
tp116
a(I3
I1
tp117
a(I1
I41
I0
I0
tp118
tp119
sS'8384b3f535667'
p120
((lp121
(I8
I3
tp122
a(I7
I3
tp123
a(I1
I25
I0
I0
tp124
tp125
sS'838492939495f434445535464'
p126
((lp127
(I9
I5
tp128
a(I7
I3
tp129
a(I5
I5
tp130
a(I3
I3
tp131
a(I1
I65
I0
I0
tp132
tp133
sS'0373b3f56b5'
p134
((lp135
g103
a(I0
I4
tp136
a(I1
I18
I0
I0
tp137
tp138
sS'2373b3f56a5'
p139
((lp140
g75
ag102
a(I1
I25
I0
I0
tp141
tp142
sS'838492939495f424344455354'
p143
((lp144
(I9
I2
tp145
a(I7
I4
tp146
a(I1
I59
I0
I0
tp147
tp148
sS'0473b3f56b5'
p149
((lp150
g136
a(I0
I3
tp151
a(I1
I18
I0
I0
tp152
tp153
sssI2
(dp154
g2
(dp155
S'9394a3a6f4452535463'
p156
((lp157
(I4
I4
tp158
a(I6
I2
tp159
a(I6
I4
tp160
a(I2
I406
I0
I44
tp161
tp162
sS'a4f52546373a2'
p163
((lp164
(I10
I2
tp165
a(I11
I2
tp166
a(I2
I143
I0
I37
tp167
tp168
sS'b4f52546373b2'
p169
((lp170
g166
a(I12
I3
tp171
a(I2
I138
I0
I36
tp172
tp173
sS'678392939495f525354556364'
p174
((lp175
(I6
I3
tp176
a(I4
I3
tp177
a(I2
I1122
I0
I56
tp178
tp179
sS'839394a6f4344525354'
p180
((lp181
(I4
I3
tp182
a(I4
I5
tp183
a(I6
I3
tp184
a(I2
I360
I0
I45
tp185
tp186
sS'148392939495f525354667787'
p187
((lp188
(I5
I2
tp189
a(I4
I1
tp190
a(I2
I1920
I0
I45
tp191
tp192
sS'c4f52546373c3'
p193
((lp194
g171
a(I12
I5
tp195
a(I1
I42
I0
I0
tp196
tp197
sS'478392939495f525354556364'
p198
((lp199
(I6
I4
tp200
a(I4
I4
tp201
a(I6
I6
tp202
a(I2
I816
I0
I55
tp203
tp204
sS'778392939495f435253545564'
p205
((lp206
(I4
I3
tp207
ag176
a(I2
I905
I0
I50
tp208
tp209
sS'748384939495f434445525354'
p210
((lp211
(I4
I5
tp212
a(I6
I3
tp213
a(I8
I5
tp214
a(I10
I5
tp215
a(I2
I693
I0
I56
tp216
tp217
sS'368392939495f525354556366'
p218
((lp219
(I5
I5
tp220
a(I7
I7
tp221
a(I2
I357
I0
I51
tp222
tp223
sS'828384939495f434445525354'
p224
((lp225
(I4
I5
tp226
a(I6
I3
tp227
a(I2
I499
I0
I53
tp228
tp229
sS'838692939495f435253545563'
p230
((lp231
(I6
I3
tp232
ag200
a(I2
I1117
I0
I38
tp233
tp234
sS'258392939495f525354636677'
p235
((lp236
(I6
I3
tp237
a(I4
I3
tp238
a(I6
I5
tp239
a(I6
I7
tp240
a(I8
I7
tp241
a(I2
I328
I0
I42
tp242
tp243
sS'838492939495f424344455354'
p244
((lp245
(I4
I2
tp246
ag189
a(I2
I697
I0
I52
tp247
tp248
sS'839394a3f5254636473'
p249
((lp250
g160
a(I6
I2
tp251
a(I8
I4
tp252
a(I8
I2
tp253
a(I10
I4
tp254
ag165
a(I2
I336
I0
I55
tp255
tp256
sS'9394a3a5f5253546364'
p257
((lp258
(I5
I3
tp259
a(I5
I5
tp260
a(I7
I3
tp261
a(I2
I385
I0
I44
tp262
tp263
sS'838492939495f434452535463'
p264
((lp265
(I4
I4
tp266
ag220
a(I2
I751
I0
I46
tp267
tp268
sS'838492939495f434445525354'
p269
((lp270
(I4
I5
tp271
a(I6
I3
tp272
a(I2
I565
I0
I53
tp273
tp274
sS'578392939495f435253545564'
p275
((lp276
g177
ag237
a(I2
I701
I0
I51
tp277
tp278
ssg65
(dp279
S'46525583fc3'
p280
((lp281
(I8
I3
tp282
a(I7
I2
tp283
a(I2
I225
I0
I32
tp284
tp285
sS'838492939495f424445525354'
p286
((lp287
(I9
I2
tp288
a(I8
I2
tp289
a(I2
I1042
I0
I53
tp290
tp291
sS'505183849295f4553'
p292
((lp293
(I5
I0
tp294
a(I5
I2
tp295
a(I5
I4
tp296
a(I3
I6
tp297
a(I1
I51
I0
I0
tp298
tp299
sS'358384929394f4244'
p300
((lp301
(I3
I5
tp302
a(I5
I3
tp303
a(I3
I1
tp304
a(I1
I57
I0
I0
tp305
tp306
sS'1525647483fa0'
p307
((lp308
(I1
I5
tp309
a(I0
I4
tp310
a(I1
I34
I0
I0
tp311
tp312
sS'678392939495f435253545564'
p313
((lp314
(I6
I7
tp315
a(I5
I7
tp316
a(I2
I938
I0
I39
tp317
tp318
sS'748283848593f424445525354'
p319
((lp320
(I8
I3
tp321
a(I6
I5
tp322
a(I4
I3
tp323
a(I4
I1
tp324
a(I2
I435
I0
I59
tp325
tp326
sS'7482838493f4043455354'
p327
((lp328
(I8
I4
tp329
a(I6
I4
tp330
a(I4
I2
tp331
a(I4
I4
tp332
a(I4
I6
tp333
a(I2
I498
I0
I45
tp334
tp335
sS'52556483fb2'
p336
((lp337
(I6
I4
tp338
a(I4
I6
tp339
a(I2
I181
I0
I29
tp340
tp341
sS'358384929394f4264'
p342
((lp343
(I9
I3
tp344
a(I7
I5
tp345
a(I5
I3
tp346
a(I3
I1
tp347
a(I1
I41
I0
I0
tp348
tp349
sS'358283849394f4452'
p350
((lp351
(I3
I5
tp352
a(I5
I3
tp353
a(I5
I1
tp354
a(I1
I57
I0
I0
tp355
tp356
sS'73748284f304345'
p357
((lp358
(I8
I2
tp359
a(I6
I4
tp360
a(I2
I164
I0
I32
tp361
tp362
sS'828384939495f434445525354'
p363
((lp364
(I9
I5
tp365
a(I7
I3
tp366
a(I2
I954
I0
I52
tp367
tp368
sS'838492939495f424344455254'
p369
((lp370
(I9
I2
tp371
a(I8
I2
tp372
a(I2
I857
I0
I53
tp373
tp374
sS'338384929394f42444565'
p375
((lp376
(I9
I3
tp377
a(I7
I5
tp378
a(I5
I5
tp379
a(I3
I5
tp380
a(I5
I3
tp381
a(I3
I1
tp382
a(I1
I46
I0
I0
tp383
tp384
sS'738283848594f424344455355'
p385
((lp386
(I9
I4
tp387
a(I7
I2
tp388
a(I7
I4
tp389
a(I2
I1137
I0
I53
tp390
tp391
sS'2564748393f4470'
p392
((lp393
(I9
I3
tp394
a(I7
I3
tp395
a(I7
I5
tp396
a(I5
I3
tp397
a(I3
I5
tp398
a(I1
I5
tp399
a(I2
I193
I0
I43
tp400
tp401
sS'748283848593f434445525354'
p402
((lp403
(I8
I5
tp404
a(I6
I3
tp405
a(I4
I1
tp406
a(I2
I1334
I0
I54
tp407
tp408
sS'578392939495f525354556364'
p409
((lp410
g316
a(I4
I7
tp411
a(I2
I1027
I0
I38
tp412
tp413
sS'838492939495f424445535465'
p414
((lp415
(I9
I3
tp416
a(I7
I5
tp417
a(I5
I5
tp418
a(I3
I3
tp419
a(I5
I1
tp420
a(I2
I1145
I0
I60
tp421
tp422
sS'828384939495f424344455354'
p423
((lp424
(I9
I5
tp425
a(I7
I3
tp426
a(I2
I1001
I0
I52
tp427
tp428
sS'838492939495f424344455463'
p429
((lp430
(I9
I5
tp431
a(I7
I3
tp432
a(I5
I3
tp433
a(I3
I3
tp434
a(I5
I5
tp435
ag302
a(I2
I997
I0
I70
tp436
tp437
sS'738283848593f424344455354'
p438
((lp439
(I9
I3
tp440
ag387
a(I2
I1096
I0
I39
tp441
tp442
sS'828384939495f424445525463'
p443
((lp444
(I9
I5
tp445
a(I7
I3
tp446
a(I5
I3
tp447
a(I5
I1
tp448
a(I3
I3
tp449
a(I2
I1014
I0
I60
tp450
tp451
sS'518384929495f455462'
p452
((lp453
(I9
I4
tp454
a(I7
I2
tp455
a(I5
I2
tp456
ag294
a(I2
I677
I0
I60
tp457
tp458
sS'738283848594f334244525354'
p459
((lp460
(I8
I3
tp461
a(I6
I3
tp462
a(I4
I1
tp463
a(I4
I3
tp464
a(I2
I3
tp465
a(I2
I323
I0
I57
tp466
tp467
sS'64737484f303445'
p468
((lp469
(I7
I3
tp470
a(I5
I5
tp471
a(I3
I5
tp472
a(I3
I3
tp473
a(I2
I133
I0
I32
tp474
tp475
sS'478392939495f525354556366'
p476
((lp477
g411
a(I3
I6
tp478
a(I2
I675
I0
I42
tp479
tp480
sS'828384939495f444552535463'
p481
((lp482
(I8
I2
tp483
a(I9
I2
tp484
a(I2
I1617
I0
I52
tp485
tp486
sS'13335484f71'
p487
((lp488
(I1
I3
tp489
a(I0
I3
tp490
a(I1
I26
I0
I0
tp491
tp492
sS'64839394f42436392'
p493
((lp494
(I9
I4
tp495
a(I7
I2
tp496
a(I5
I4
tp497
a(I3
I2
tp498
a(I5
I2
tp499
a(I2
I183
I0
I39
tp500
tp501
sS'738283848594f434445525354'
p502
((lp503
g387
a(I7
I2
tp504
a(I7
I4
tp505
a(I2
I1391
I0
I56
tp506
tp507
sS'738283849394f344244535456'
p508
((lp509
(I8
I3
tp510
a(I6
I3
tp511
a(I4
I3
tp512
a(I4
I5
tp513
a(I2
I3
tp514
a(I2
I280
I0
I56
tp515
tp516
sS'2574828393f4460'
p517
((lp518
g483
a(I8
I4
tp519
a(I6
I4
tp520
a(I2
I223
I0
I41
tp521
tp522
sS'7482848593f30444553'
p523
((lp524
(I8
I5
tp525
a(I6
I3
tp526
a(I4
I3
tp527
a(I2
I318
I0
I48
tp528
tp529
sS'828384939495f434445525463'
p530
((lp531
(I9
I5
tp532
a(I7
I3
tp533
a(I5
I3
tp534
a(I3
I3
tp535
a(I5
I5
tp536
ag352
a(I2
I871
I0
I58
tp537
tp538
sS'738283849394f424352535463'
p539
((lp540
(I8
I4
tp541
a(I6
I2
tp542
a(I4
I4
tp543
ag338
a(I2
I1297
I0
I48
tp544
tp545
sS'538384929394f4243444555'
p546
((lp547
g433
a(I3
I3
tp548
a(I5
I1
tp549
a(I2
I934
I0
I51
tp550
tp551
sS'838492939495f444552536372'
p552
((lp553
(I8
I4
tp554
a(I8
I2
tp555
a(I6
I2
tp556
a(I4
I2
tp557
a(I6
I4
tp558
a(I2
I976
I0
I62
tp559
tp560
sS'8392939495f444565'
p561
((lp562
g484
a(I7
I4
tp563
a(I5
I6
tp564
a(I3
I4
tp565
a(I5
I4
tp566
a(I1
I40
I0
I0
tp567
tp568
sS'738283849394f424345525354'
p569
((lp570
(I9
I4
tp571
a(I8
I5
tp572
a(I2
I1506
I0
I52
tp573
tp574
sS'248384929394f4264'
p575
((lp576
(I9
I3
tp577
a(I7
I5
tp578
a(I5
I3
tp579
a(I3
I1
tp580
a(I1
I41
I0
I0
tp581
tp582
sS'52648393fa1'
p583
((lp584
(I9
I3
tp585
a(I7
I3
tp586
a(I5
I5
tp587
a(I2
I105
I0
I30
tp588
tp589
sS'737482838485f424344455354'
p590
((lp591
g426
a(I7
I5
tp592
ag394
a(I2
I1498
I0
I52
tp593
tp594
sS'234051576694f43'
p595
((lp596
g514
a(I1
I3
tp597
a(I2
I160
I0
I37
tp598
tp599
sS'248384929394f4245'
p600
((lp601
(I9
I2
tp602
a(I7
I4
tp603
a(I2
I242
I0
I54
tp604
tp605
sS'738283849394f424344455355'
p606
((lp607
(I9
I4
tp608
ag525
a(I2
I1367
I0
I49
tp609
tp610
sS'2535647483f90'
p611
((lp612
(I3
I5
tp613
ag309
a(I2
I152
I0
I35
tp614
tp615
sS'828384939495f424344455253'
p616
((lp617
(I9
I5
tp618
a(I7
I3
tp619
a(I2
I1169
I0
I52
tp620
tp621
sS'828384939495f434452535463'
p622
((lp623
g483
a(I9
I2
tp624
a(I2
I1315
I0
I52
tp625
tp626
sS'235762667394f45'
p627
((lp628
(I7
I3
tp629
a(I5
I1
tp630
a(I2
I240
I0
I43
tp631
tp632
sS'22335484f61'
p633
((lp634
(I2
I2
tp635
ag489
a(I2
I154
I0
I26
tp636
tp637
sS'33647484f41'
p638
((lp639
g389
a(I5
I4
tp640
a(I2
I109
I0
I28
tp641
tp642
sS'247483849394f4244'
p643
((lp644
(I2
I4
tp645
a(I1
I3
tp646
a(I2
I277
I0
I51
tp647
tp648
sS'2564747583f4480'
p649
((lp650
g396
a(I5
I3
tp651
ag613
a(I1
I5
tp652
a(I2
I182
I0
I42
tp653
tp654
sS'828384939495f344244535455'
p655
((lp656
(I9
I5
tp657
ag629
a(I2
I850
I0
I54
tp658
tp659
sS'778392939495f525354556364'
p660
((lp661
(I7
I7
tp662
ag315
a(I2
I1166
I0
I37
tp663
tp664
sS'258392939495f525354667787'
p665
((lp666
(I2
I5
tp667
a(I1
I4
tp668
a(I2
I466
I0
I44
tp669
tp670
sS'838492939495f434445525354'
p671
((lp672
(I9
I2
tp673
ag483
a(I2
I1071
I0
I53
tp674
tp675
sS'3674828393f4450'
p676
((lp677
(I3
I6
tp678
a(I2
I5
tp679
a(I2
I205
I0
I39
tp680
tp681
sS'137483849394f4245'
p682
((lp683
g646
a(I0
I3
tp684
a(I1
I51
I0
I0
tp685
tp686
sS'148392939495f415354667787'
p687
((lp688
g668
a(I0
I3
tp689
a(I1
I42
I0
I0
tp690
tp691
sS'74828493f304245'
p692
((lp693
g394
a(I7
I5
tp694
ag470
a(I2
I206
I0
I31
tp695
tp696
sS'358384929394f4255'
p697
((lp698
g302
ag645
a(I2
I321
I0
I53
tp699
tp700
sS'368392939495f525354636677'
p701
((lp702
g478
ag667
a(I2
I782
I0
I42
tp703
tp704
sS'237382849394f425455'
p705
((lp706
(I8
I2
tp707
a(I6
I4
tp708
a(I4
I4
tp709
a(I6
I6
tp710
a(I2
I368
I0
I51
tp711
tp712
sS'838492939495f435253545563'
p713
((lp714
(I8
I4
tp715
a(I8
I2
tp716
a(I10
I4
tp717
a(I8
I6
tp718
a(I2
I1472
I0
I52
tp719
tp720
sS'738283848593f424344525354'
p721
((lp722
(I9
I3
tp723
a(I9
I4
tp724
a(I2
I1214
I0
I41
tp725
tp726
sS'235157626694f44'
p727
((lp728
(I6
I2
tp729
a(I4
I0
tp730
a(I2
I178
I0
I40
tp731
tp732
sS'828384939495f424345525354'
p733
((lp734
(I9
I5
tp735
a(I7
I3
tp736
a(I2
I989
I0
I52
tp737
tp738
sS'237382848594f345354'
p739
((lp740
g465
a(I4
I5
tp741
a(I6
I3
tp742
a(I4
I3
tp743
a(I1
I73
I0
I0
tp744
tp745
sS'134051576694f44'
p746
((lp747
g597
a(I0
I3
tp748
a(I1
I34
I0
I0
tp749
tp750
sS'4674828393f4044'
p751
((lp752
g333
ag678
a(I2
I287
I0
I40
tp753
tp754
sS'748283848593f424344455355'
p755
((lp756
g394
a(I7
I3
tp757
a(I2
I1164
I0
I51
tp758
tp759
sS'738283849394f434445525463'
p760
((lp761
g366
a(I5
I3
tp762
a(I3
I3
tp763
a(I5
I5
tp764
a(I3
I5
tp765
a(I2
I1500
I0
I47
tp766
tp767
sS'838492939495f424344455355'
p768
((lp769
g602
a(I8
I2
tp770
a(I2
I848
I0
I53
tp771
tp772
sS'838692939495f435253545564'
p773
((lp774
g718
ag662
a(I2
I804
I0
I52
tp775
tp776
sS'33546484f51'
p777
((lp778
g360
a(I4
I4
tp779
ag635
a(I2
I114
I0
I30
tp780
tp781
sS'738283849394f434445525354'
p782
((lp783
(I9
I4
tp784
ag404
a(I2
I1359
I0
I50
tp785
tp786
sS'338283849394f344554'
p787
((lp788
g449
a(I3
I5
tp789
a(I5
I5
tp790
a(I5
I3
tp791
a(I1
I57
I0
I0
tp792
tp793
sS'235766738494f44'
p794
((lp795
(I8
I4
tp796
ag729
a(I2
I201
I0
I47
tp797
tp798
sS'236673849394f43'
p799
((lp800
g416
a(I7
I5
tp801
a(I5
I7
tp802
a(I2
I153
I0
I48
tp803
tp804
sS'838492939495f344244455354'
p805
((lp806
(I9
I2
tp807
ag707
a(I2
I1041
I0
I53
tp808
tp809
sssI3
(dp810
g2
(dp811
S'838485929394f434445525354'
p812
((lp813
g212
a(I6
I3
tp814
a(I3
I21371
I403
I53
tp815
tp816
sS'8284a5f7077'
p817
((lp818
(I7
I7
tp819
a(I8
I6
tp820
a(I3
I782
I82
I7
tp821
tp822
sS'738384929394f434445525354'
p823
((lp824
(I4
I4
tp825
a(I4
I2
tp826
a(I6
I4
tp827
a(I8
I2
tp828
a(I10
I2
tp829
a(I3
I40219
I988
I58
tp830
tp831
sS'828384929394f445253546365'
p832
((lp833
(I6
I5
tp834
a(I6
I6
tp835
a(I3
I42216
I827
I56
tp836
tp837
sS'728283848693f435253545563'
p838
((lp839
(I5
I2
tp840
a(I7
I4
tp841
a(I9
I2
tp842
a(I3
I20465
I531
I45
tp843
tp844
sS'8294a4f7096'
p845
((lp846
(I9
I6
tp847
a(I10
I6
tp848
a(I3
I1236
I123
I9
tp849
tp850
sS'828384939495f434445525354'
p851
((lp852
g226
a(I6
I3
tp853
a(I3
I18061
I447
I53
tp854
tp855
sS'82b4f70c5'
p856
((lp857
(I12
I5
tp858
a(I13
I4
tp859
a(I1
I11
I0
I0
tp860
tp861
sS'568493a2f52535463'
p862
((lp863
(I5
I2
tp864
a(I7
I4
tp865
a(I9
I4
tp866
a(I9
I2
tp867
a(I11
I2
tp868
a(I3
I5302
I118
I35
tp869
tp870
sS'7282838693f435354556392'
p871
((lp872
(I5
I3
tp873
a(I7
I3
tp874
a(I9
I1
tp875
a(I3
I37034
I1133
I44
tp876
tp877
sS'9495f444552535481'
p878
((lp879
g212
a(I4
I3
tp880
a(I6
I1
tp881
a(I3
I6889
I94
I55
tp882
tp883
sS'33728386f54559192'
p884
((lp885
(I9
I1
tp886
a(I9
I3
tp887
a(I7
I3
tp888
a(I7
I1
tp889
a(I3
I13092
I584
I28
tp890
tp891
sS'828384929394f525354636466'
p892
((lp893
g835
ag819
a(I3
I49588
I1083
I59
tp894
tp895
sS'7384a5f6177'
p896
((lp897
(I6
I1
tp898
a(I7
I0
tp899
a(I3
I1569
I208
I6
tp900
tp901
sS'82a4b4f70a6'
p902
((lp903
g848
a(I11
I6
tp904
a(I3
I1177
I106
I8
tp905
tp906
sS'738384f527795'
p907
((lp908
(I5
I2
tp909
ag898
a(I3
I2473
I196
I16
tp910
tp911
sS'8283929394a4f445253546366'
p912
((lp913
(I4
I4
tp914
a(I6
I2
tp915
a(I6
I4
tp916
a(I3
I77549
I1895
I52
tp917
tp918
sS'728492939495f434445525354'
p919
((lp920
g182
a(I6
I1
tp921
a(I8
I3
tp922
a(I8
I5
tp923
a(I10
I3
tp924
a(I8
I1
tp925
a(I3
I28243
I447
I80
tp926
tp927
sS'738485929394f434452535463'
p928
((lp929
g158
a(I4
I2
tp930
a(I6
I2
tp931
a(I6
I4
tp932
a(I8
I2
tp933
a(I10
I4
tp934
a(I3
I43419
I1191
I60
tp935
tp936
sS'828384869394f434452535463'
p937
((lp938
(I4
I4
tp939
a(I5
I5
tp940
a(I3
I42136
I1004
I55
tp941
tp942
sS'1286f54558192'
p943
((lp944
(I5
I5
tp945
a(I4
I4
tp946
a(I2
I5111
I211
I32
tp947
tp948
sS'558283849294f5253546377'
p949
((lp950
(I5
I3
tp951
a(I7
I3
tp952
a(I9
I1
tp953
a(I9
I3
tp954
a(I9
I5
tp955
a(I3
I16984
I452
I37
tp956
tp957
sS'81849294f4352535463'
p958
((lp959
(I5
I3
tp960
a(I7
I3
tp961
a(I9
I5
tp962
a(I9
I3
tp963
a(I9
I1
tp964
a(I7
I1
tp965
a(I1
I26
I0
I0
tp966
tp967
sS'2286f54557192'
p968
((lp969
g889
a(I8
I1
tp970
a(I3
I3169
I110
I25
tp971
tp972
sS'9394f445253546181'
p973
((lp974
g925
a(I7
I2
tp975
a(I3
I16659
I310
I54
tp976
tp977
sS'828492939495f434445525354'
p978
((lp979
(I4
I5
tp980
a(I6
I3
tp981
a(I3
I18909
I370
I53
tp982
tp983
sS'828494f7086'
p984
((lp985
g820
ag847
a(I3
I1303
I138
I9
tp986
tp987
sS'849394a1f4345525354'
p988
((lp989
(I4
I5
tp990
a(I6
I3
tp991
a(I3
I6765
I169
I39
tp992
tp993
sS'849394a2f4352535463'
p994
((lp995
(I4
I3
tp996
a(I6
I5
tp997
a(I3
I16151
I389
I31
tp998
tp999
sS'82a4b5f70b6'
p1000
((lp1001
g904
ag858
a(I3
I1191
I110
I7
tp1002
tp1003
sS'828392939495f434452535463'
p1004
((lp1005
(I4
I3
tp1006
ag834
a(I3
I59439
I1472
I48
tp1007
tp1008
sS'838492939495f424344455354'
p1009
((lp1010
(I4
I2
tp1011
ag864
a(I3
I24013
I539
I52
tp1012
tp1013
sS'46f535463b2'
p1014
((lp1015
(I5
I3
tp1016
a(I5
I5
tp1017
a(I3
I7
tp1018
a(I1
I16
I0
I0
tp1019
tp1020
sS'9294f445253546172'
p1021
((lp1022
g881
a(I4
I3
tp1023
a(I4
I5
tp1024
a(I6
I3
tp1025
a(I8
I1
tp1026
a(I10
I3
tp1027
a(I8
I5
tp1028
a(I1
I51
I0
I0
tp1029
tp1030
ssg65
(dp1031
S'828384939495f434452535455'
p1032
((lp1033
(I9
I5
tp1034
a(I7
I3
tp1035
a(I3
I26804
I869
I51
tp1036
tp1037
sS'5375828694f67'
p1038
((lp1039
(I9
I4
tp1040
a(I8
I5
tp1041
a(I3
I2548
I26
I39
tp1042
tp1043
sS'828384939495f424445525354'
p1044
((lp1045
(I9
I5
tp1046
a(I7
I3
tp1047
a(I3
I25172
I784
I51
tp1048
tp1049
sS'7382849394f365355'
p1050
((lp1051
(I8
I2
tp1052
a(I6
I4
tp1053
a(I4
I6
tp1054
a(I2
I6
tp1055
a(I3
I14143
I250
I44
tp1056
tp1057
sS'157382839394f142433'
p1058
((lp1059
(I1
I5
tp1060
a(I0
I4
tp1061
a(I1
I50
I0
I0
tp1062
tp1063
sS'828384869293f525354626364'
p1064
((lp1065
(I8
I4
tp1066
ag1040
a(I3
I43988
I912
I61
tp1067
tp1068
sS'5275828694f56'
p1069
((lp1070
(I5
I2
tp1071
a(I5
I3
tp1072
a(I3
I3148
I34
I38
tp1073
tp1074
sS'828384869394f435253545563'
p1075
((lp1076
(I9
I4
tp1077
a(I7
I2
tp1078
a(I3
I29043
I573
I59
tp1079
tp1080
sS'738283849394f424452535455'
p1081
((lp1082
(I8
I3
tp1083
a(I6
I3
tp1084
a(I4
I1
tp1085
a(I4
I3
tp1086
a(I4
I5
tp1087
a(I3
I7192
I148
I53
tp1088
tp1089
sS'738283849394f333436424553'
p1090
((lp1091
(I8
I4
tp1092
a(I6
I2
tp1093
a(I4
I4
tp1094
a(I4
I6
tp1095
a(I2
I6
tp1096
a(I3
I13486
I286
I56
tp1097
tp1098
sS'3541546482fb6'
p1099
((lp1100
(I6
I4
tp1101
a(I4
I4
tp1102
a(I2
I6
tp1103
a(I3
I5173
I54
I35
tp1104
tp1105
sS'3142638494fb5'
p1106
((lp1107
(I3
I1
tp1108
a(I2
I2
tp1109
a(I3
I5471
I117
I39
tp1110
tp1111
sS'727382838493f434451525354'
p1112
((lp1113
(I9
I3
tp1114
a(I7
I5
tp1115
a(I3
I49582
I1179
I66
tp1116
tp1117
sS'267382839394f243334'
p1118
((lp1119
g1096
ag1060
a(I3
I25605
I806
I45
tp1120
tp1121
sS'738283849394f435253545566'
p1122
((lp1123
(I8
I4
tp1124
a(I6
I2
tp1125
a(I4
I2
tp1126
a(I4
I4
tp1127
a(I6
I4
tp1128
a(I4
I6
tp1129
a(I3
I22095
I561
I60
tp1130
tp1131
sS'838492939495f334244455354'
p1132
((lp1133
(I9
I2
tp1134
a(I8
I2
tp1135
a(I3
I30563
I1181
I54
tp1136
tp1137
sS'838492939495f424445525354'
p1138
((lp1139
(I9
I2
tp1140
ag1052
a(I3
I38405
I1448
I53
tp1141
tp1142
sS'8283849394f455254636477'
p1143
((lp1144
(I9
I3
tp1145
a(I7
I3
tp1146
a(I5
I3
tp1147
a(I5
I5
tp1148
a(I3
I5
tp1149
a(I3
I42103
I934
I61
tp1150
tp1151
sS'3574828384f60'
p1152
((lp1153
(I8
I2
tp1154
a(I7
I1
tp1155
a(I3
I1630
I26
I11
tp1156
tp1157
sS'4042637273fb5'
p1158
((lp1159
(I7
I2
tp1160
a(I7
I4
tp1161
a(I5
I2
tp1162
a(I3
I2
tp1163
a(I3
I4266
I49
I36
tp1164
tp1165
sS'738283849394f424445525463'
p1166
((lp1167
g1047
a(I5
I3
tp1168
a(I3
I37575
I748
I55
tp1169
tp1170
sS'8384929394f26435354'
p1171
((lp1172
(I9
I3
tp1173
a(I7
I3
tp1174
a(I3
I8810
I162
I47
tp1175
tp1176
sS'838492939495f424344455463'
p1177
((lp1178
(I9
I5
tp1179
a(I7
I3
tp1180
a(I5
I3
tp1181
a(I3
I3
tp1182
a(I5
I5
tp1183
a(I3
I5
tp1184
a(I3
I61731
I1279
I68
tp1185
tp1186
sS'828384939495f444552535463'
p1187
((lp1188
(I9
I5
tp1189
a(I8
I6
tp1190
a(I3
I34758
I870
I54
tp1191
tp1192
sS'7483849395f425467'
p1193
((lp1194
(I8
I3
tp1195
a(I6
I5
tp1196
a(I4
I3
tp1197
a(I4
I1
tp1198
a(I3
I10912
I131
I52
tp1199
tp1200
sS'357483849394f4254'
p1201
((lp1202
(I8
I3
tp1203
a(I6
I5
tp1204
a(I4
I3
tp1205
a(I4
I1
tp1206
a(I1
I18
I0
I0
tp1207
tp1208
sS'72838693f435455639192'
p1209
((lp1210
(I9
I3
tp1211
a(I7
I3
tp1212
a(I5
I3
tp1213
a(I3
I3
tp1214
a(I3
I21179
I798
I31
tp1215
tp1216
sS'467382839394f5377'
p1217
((lp1218
(I8
I3
tp1219
a(I6
I3
tp1220
a(I3
I12152
I90
I56
tp1221
tp1222
sS'354446638394fb6'
p1223
((lp1224
g1129
a(I2
I4
tp1225
a(I3
I6635
I106
I52
tp1226
tp1227
sS'358384929394f4253'
p1228
((lp1229
g1140
a(I7
I4
tp1230
a(I3
I7406
I77
I54
tp1231
tp1232
sS'1573849394f33'
p1233
((lp1234
(I1
I5
tp1235
a(I0
I4
tp1236
a(I1
I37
I0
I0
tp1237
tp1238
sS'828384939495f434452535463'
p1239
((lp1240
(I9
I5
tp1241
a(I8
I6
tp1242
a(I3
I35839
I839
I54
tp1243
tp1244
sS'2242637394fb4'
p1245
((lp1246
(I6
I3
tp1247
a(I8
I3
tp1248
a(I10
I5
tp1249
a(I12
I3
tp1250
a(I1
I10
I0
I0
tp1251
tp1252
sS'838492939495f434445525354'
p1253
((lp1254
g1134
a(I8
I2
tp1255
a(I3
I34787
I1202
I53
tp1256
tp1257
sS'828384939495f424552535455'
p1258
((lp1259
(I9
I5
tp1260
a(I7
I3
tp1261
a(I3
I27999
I920
I51
tp1262
tp1263
sS'2130316373fc3'
p1264
((lp1265
(I7
I3
tp1266
a(I6
I2
tp1267
a(I2
I3941
I91
I29
tp1268
tp1269
sS'56738394f37'
p1270
((lp1271
g1174
a(I6
I3
tp1272
a(I3
I1859
I10
I30
tp1273
tp1274
sS'3240426373fc4'
p1275
((lp1276
(I4
I2
tp1277
a(I3
I1
tp1278
a(I2
I7318
I129
I43
tp1279
tp1280
sS'267383849394f23333442'
p1281
((lp1282
(I2
I6
tp1283
a(I1
I5
tp1284
a(I3
I10190
I208
I46
tp1285
tp1286
sS'8283849394f4245525462'
p1287
((lp1288
(I9
I3
tp1289
a(I7
I3
tp1290
a(I5
I1
tp1291
a(I5
I3
tp1292
a(I5
I5
tp1293
a(I3
I5
tp1294
a(I3
I41921
I905
I59
tp1295
tp1296
sS'738283849394f333435424554'
p1297
((lp1298
g1135
a(I6
I4
tp1299
a(I4
I4
tp1300
ag1283
a(I3
I26260
I667
I52
tp1301
tp1302
sS'36456383f67'
p1303
((lp1304
(I3
I6
tp1305
a(I2
I5
tp1306
a(I3
I2688
I42
I27
tp1307
tp1308
sS'828384869394f445253546263'
p1309
((lp1310
g495
a(I7
I2
tp1311
a(I9
I2
tp1312
a(I3
I60958
I1692
I59
tp1313
tp1314
sS'3582838494f51'
p1315
((lp1316
(I9
I4
tp1317
a(I7
I4
tp1318
a(I3
I4825
I62
I38
tp1319
tp1320
sS'838492939495f424344455254'
p1321
((lp1322
(I9
I2
tp1323
a(I8
I2
tp1324
a(I3
I17977
I461
I54
tp1325
tp1326
sS'828384869394f455253546364'
p1327
((lp1328
g1190
a(I7
I6
tp1329
a(I3
I65608
I1971
I60
tp1330
tp1331
sS'4163849395f87'
p1332
((lp1333
g1198
a(I4
I2
tp1334
a(I3
I3544
I59
I38
tp1335
tp1336
sS'456673829394f74'
p1337
((lp1338
g1052
a(I6
I4
tp1339
a(I8
I4
tp1340
a(I1
I5
I0
I0
tp1341
tp1342
sS'2635415482fc5'
p1343
((lp1344
(I4
I1
tp1345
a(I3
I0
tp1346
a(I2
I4855
I76
I37
tp1347
tp1348
sS'828384939495f424452535463'
p1349
((lp1350
g735
a(I8
I6
tp1351
a(I3
I53804
I1456
I52
tp1352
tp1353
sS'3582838494f527477'
p1354
((lp1355
(I8
I3
tp1356
a(I8
I5
tp1357
a(I6
I3
tp1358
ag1345
a(I3
I5504
I75
I37
tp1359
tp1360
sS'3541748284f97'
p1361
((lp1362
(I8
I4
tp1363
ag1101
a(I3
I4180
I36
I38
tp1364
tp1365
sS'72828386f425354626392'
p1366
((lp1367
(I7
I2
tp1368
a(I5
I2
tp1369
a(I3
I2
tp1370
a(I3
I12285
I612
I25
tp1371
tp1372
sS'73839294f2665'
p1373
((lp1374
(I9
I2
tp1375
a(I7
I4
tp1376
a(I5
I6
tp1377
a(I3
I3443
I41
I34
tp1378
tp1379
sS'32718386f535463b2'
p1380
((lp1381
g1370
a(I2
I2
tp1382
a(I3
I7302
I328
I29
tp1383
tp1384
sS'7273828384f435152535486'
p1385
((lp1386
(I8
I2
tp1387
a(I6
I4
tp1388
a(I4
I2
tp1389
a(I6
I2
tp1390
a(I4
I0
tp1391
a(I3
I16490
I244
I73
tp1392
tp1393
sS'4263849395f97'
p1394
((lp1395
(I9
I5
tp1396
a(I7
I3
tp1397
a(I5
I3
tp1398
ag1108
a(I3
I4042
I71
I36
tp1399
tp1400
sS'828384869394f425253546263'
p1401
((lp1402
g495
ag1368
a(I3
I75972
I1892
I63
tp1403
tp1404
sS'828384939495f424344455253'
p1405
((lp1406
g1046
ag1266
a(I3
I23895
I995
I50
tp1407
tp1408
sS'738283849394f424344525354'
p1409
((lp1410
(I9
I4
tp1411
ag1160
a(I3
I40028
I1010
I49
tp1412
tp1413
sS'8384929395f425457'
p1414
((lp1415
(I9
I2
tp1416
a(I7
I4
tp1417
a(I3
I5666
I72
I48
tp1418
tp1419
sS'3386f54557192'
p1420
((lp1421
(I3
I3
tp1422
a(I2
I2
tp1423
a(I3
I1755
I116
I15
tp1424
tp1425
sS'45638394f57'
p1426
((lp1427
(I9
I4
tp1428
a(I7
I2
tp1429
a(I5
I4
tp1430
ag1305
a(I3
I2082
I37
I32
tp1431
tp1432
sS'828384939495f333442455354'
p1433
((lp1434
g1189
a(I7
I3
tp1435
a(I3
I14771
I347
I55
tp1436
tp1437
sS'56638394f47'
p1438
((lp1439
g1377
a(I4
I5
tp1440
a(I3
I1740
I28
I30
tp1441
tp1442
sS'738283849394f425253545564'
p1443
((lp1444
(I8
I3
tp1445
a(I6
I3
tp1446
a(I4
I1
tp1447
a(I4
I3
tp1448
a(I6
I5
tp1449
a(I4
I5
tp1450
a(I3
I6853
I156
I51
tp1451
tp1452
sS'2673849394f43'
p1453
((lp1454
g1055
ag1235
a(I3
I3152
I47
I30
tp1455
tp1456
sS'5375828586f77'
p1457
((lp1458
g1041
a(I8
I7
tp1459
a(I6
I7
tp1460
a(I1
I40
I0
I0
tp1461
tp1462
sS'357483849394f4263'
p1463
((lp1464
g114
a(I7
I3
tp1465
a(I5
I3
tp1466
a(I3
I1
tp1467
a(I1
I26
I0
I0
tp1468
tp1469
sS'3541647482fa6'
p1470
((lp1471
(I7
I4
tp1472
a(I5
I4
tp1473
a(I3
I5304
I84
I32
tp1474
tp1475
sS'828386929394f525462636473'
p1476
((lp1477
g1312
a(I7
I4
tp1478
a(I7
I2
tp1479
a(I3
I38083
I879
I59
tp1480
tp1481
sS'444663739394f97'
p1482
((lp1483
g1035
a(I5
I3
tp1484
a(I3
I5
tp1485
a(I3
I6614
I81
I50
tp1486
tp1487
sS'358384929394f4264'
p1488
((lp1489
(I9
I3
tp1490
a(I7
I5
tp1491
a(I5
I3
tp1492
a(I3
I1
tp1493
a(I1
I49
I0
I0
tp1494
tp1495
sS'32828386f535463a1'
p1496
((lp1497
(I8
I2
tp1498
a(I7
I1
tp1499
a(I3
I6888
I390
I29
tp1500
tp1501
sS'243544638394fc5'
p1502
((lp1503
g1485
a(I1
I3
tp1504
a(I2
I10343
I121
I55
tp1505
tp1506
sS'22718386f535463c3'
p1507
((lp1508
(I8
I6
tp1509
a(I7
I5
tp1510
a(I2
I8708
I965
I31
tp1511
tp1512
sS'466373829394f5387'
p1513
((lp1514
(I8
I2
tp1515
a(I6
I4
tp1516
a(I6
I2
tp1517
a(I4
I4
tp1518
a(I3
I6853
I55
I58
tp1519
tp1520
sS'7383849294f26535463'
p1521
((lp1522
(I8
I4
tp1523
a(I6
I2
tp1524
a(I4
I4
tp1525
a(I6
I4
tp1526
a(I3
I15489
I389
I51
tp1527
tp1528
sS'354446639394fa7'
p1529
((lp1530
(I9
I3
tp1531
a(I8
I3
tp1532
a(I3
I5475
I49
I47
tp1533
tp1534
sS'838492939495f424345535462'
p1535
((lp1536
(I9
I4
tp1537
a(I7
I2
tp1538
a(I5
I2
tp1539
a(I3
I4
tp1540
a(I5
I6
tp1541
a(I3
I71409
I1927
I59
tp1542
tp1543
sS'3031326373fc4'
p1544
((lp1545
g1163
a(I2
I1
tp1546
a(I2
I4263
I96
I32
tp1547
tp1548
sS'2286f54558192'
p1549
((lp1550
g1423
a(I1
I2
tp1551
a(I3
I1588
I192
I7
tp1552
tp1553
sS'838492939495f424344535455'
p1554
((lp1555
g1140
ag1515
a(I3
I32653
I1100
I54
tp1556
tp1557
sS'7282869394f5462636492'
p1558
((lp1559
(I9
I3
tp1560
a(I9
I1
tp1561
a(I7
I3
tp1562
a(I5
I3
tp1563
a(I7
I5
tp1564
a(I3
I15381
I557
I43
tp1565
tp1566
sS'7275828694f4562'
p1567
((lp1568
g1479
ag1071
a(I3
I7533
I130
I36
tp1569
tp1570
sS'14456383f87'
p1571
((lp1572
(I1
I4
tp1573
a(I0
I3
tp1574
a(I1
I26
I0
I0
tp1575
tp1576
sS'3142638493fa6'
p1577
((lp1578
(I9
I3
tp1579
a(I9
I4
tp1580
a(I3
I4401
I78
I36
tp1581
tp1582
sS'838492939495f434445535464'
p1583
((lp1584
(I9
I5
tp1585
a(I7
I3
tp1586
a(I5
I5
tp1587
a(I3
I5
tp1588
a(I3
I63154
I1537
I56
tp1589
tp1590
sS'2242638494fc4'
p1591
((lp1592
(I8
I4
tp1593
a(I7
I3
tp1594
a(I2
I6876
I133
I42
tp1595
tp1596
sS'25456383f77'
p1597
((lp1598
g1306
ag1573
a(I3
I1457
I17
I20
tp1599
tp1600
sS'3132406373fc3'
p1601
((lp1602
g1391
a(I3
I0
tp1603
a(I2
I6026
I111
I37
tp1604
tp1605
sS'3571748384f70'
p1606
((lp1607
(I8
I4
tp1608
a(I8
I2
tp1609
a(I6
I0
tp1610
a(I8
I0
tp1611
a(I1
I24
I0
I0
tp1612
tp1613
sS'4072738384f435497'
p1614
((lp1615
(I8
I4
tp1616
a(I8
I2
tp1617
a(I6
I4
tp1618
a(I4
I4
tp1619
ag1277
a(I3
I7020
I90
I45
tp1620
tp1621
sS'7282848693f435354556392'
p1622
((lp1623
(I8
I4
tp1624
a(I8
I3
tp1625
a(I3
I38297
I1407
I45
tp1626
tp1627
sS'4174849395f77'
p1628
((lp1629
g1417
a(I6
I3
tp1630
a(I3
I4522
I83
I41
tp1631
tp1632
sS'828384939495f424452535455'
p1633
((lp1634
g1034
a(I7
I3
tp1635
a(I3
I18052
I346
I53
tp1636
tp1637
sS'4042727383fa6'
p1638
((lp1639
(I8
I3
tp1640
a(I6
I3
tp1641
a(I3
I3860
I56
I35
tp1642
tp1643
sS'2130316263fc4'
p1644
((lp1645
g1603
a(I1
I2
tp1646
a(I2
I3982
I91
I29
tp1647
tp1648
sS'157383849394f13233442'
p1649
((lp1650
g1284
a(I0
I4
tp1651
a(I1
I51
I0
I0
tp1652
tp1653
sS'2630355482fc4'
p1654
((lp1655
g1473
a(I4
I3
tp1656
a(I2
I4747
I101
I33
tp1657
tp1658
sS'3541828494f87'
p1659
((lp1660
(I9
I4
tp1661
ag1472
a(I3
I4346
I41
I38
tp1662
tp1663
sS'457382849394f6475'
p1664
((lp1665
g1124
a(I6
I6
tp1666
a(I3
I800
I34
I1
tp1667
tp1668
sS'1286f44548192'
p1669
((lp1670
g1551
a(I0
I3
tp1671
a(I1
I10
I0
I0
tp1672
tp1673
sss.