(dp0
I1
(dp1
S'north'
p2
(dp3
sS'south'
p4
(dp5
ssI2
(dp6
g2
(dp7
sg4
(dp8
S'838492939495f424445535465'
p9
((lp10
(I9
I3
tp11
a(I7
I5
tp12
a(I5
I5
tp13
a(I3
I3
tp14
a(I5
I1
tp15
a(I2
I1145
I0
I60
tp16
tp17
sS'358384929394f4244'
p18
((lp19
(I3
I5
tp20
a(I5
I3
tp21
a(I3
I1
tp22
a(I1
I57
I0
I0
tp23
tp24
sS'748283848593f424445525354'
p25
((lp26
(I8
I3
tp27
a(I6
I5
tp28
a(I4
I3
tp29
a(I4
I1
tp30
a(I2
I435
I0
I59
tp31
tp32
sS'358384929394f4264'
p33
((lp34
(I9
I3
tp35
a(I7
I5
tp36
a(I5
I3
tp37
a(I3
I1
tp38
a(I1
I41
I0
I0
tp39
tp40
sS'73748284f304345'
p41
((lp42
(I8
I2
tp43
a(I6
I4
tp44
a(I2
I164
I0
I32
tp45
tp46
sS'738283848594f424344455355'
p47
((lp48
(I9
I4
tp49
a(I7
I2
tp50
a(I7
I4
tp51
a(I2
I1137
I0
I53
tp52
tp53
sS'518384929495f455462'
p54
((lp55
(I9
I4
tp56
a(I7
I2
tp57
a(I5
I2
tp58
a(I5
I0
tp59
a(I2
I677
I0
I60
tp60
tp61
sS'505183849295f4553'
p62
((lp63
g59
a(I5
I2
tp64
a(I5
I4
tp65
a(I3
I6
tp66
a(I1
I51
I0
I0
tp67
tp68
sS'828384939495f424344455354'
p69
((lp70
(I9
I5
tp71
a(I7
I3
tp72
a(I2
I1001
I0
I52
tp73
tp74
sS'838492939495f424344455463'
p75
((lp76
(I9
I5
tp77
a(I7
I3
tp78
a(I5
I3
tp79
a(I3
I3
tp80
a(I5
I5
tp81
ag20
a(I2
I997
I0
I70
tp82
tp83
sS'738283848593f424344455354'
p84
((lp85
(I9
I3
tp86
ag49
a(I2
I1096
I0
I39
tp87
tp88
sS'13335484f71'
p89
((lp90
(I1
I3
tp91
a(I0
I3
tp92
a(I1
I26
I0
I0
tp93
tp94
sS'738283849394f344244535456'
p95
((lp96
(I8
I3
tp97
a(I6
I3
tp98
a(I4
I3
tp99
a(I4
I5
tp100
a(I2
I3
tp101
a(I2
I280
I0
I56
tp102
tp103
sS'737482838485f424344455354'
p104
((lp105
g72
a(I7
I5
tp106
a(I9
I3
tp107
a(I2
I1498
I0
I52
tp108
tp109
sS'7482848593f30444553'
p110
((lp111
(I8
I5
tp112
a(I6
I3
tp113
a(I4
I3
tp114
a(I2
I318
I0
I48
tp115
tp116
sS'358384929394f4255'
p117
((lp118
g20
a(I2
I4
tp119
a(I2
I321
I0
I53
tp120
tp121
sS'247483849394f4244'
p122
((lp123
g119
a(I1
I3
tp124
a(I2
I277
I0
I51
tp125
tp126
sS'234051576694f43'
p127
((lp128
g101
a(I1
I3
tp129
a(I2
I160
I0
I37
tp130
tp131
sS'248384929394f4245'
p132
((lp133
(I9
I2
tp134
a(I7
I4
tp135
a(I2
I242
I0
I54
tp136
tp137
sS'738283849394f424344455355'
p138
((lp139
(I9
I4
tp140
ag112
a(I2
I1367
I0
I49
tp141
tp142
sS'235762667394f45'
p143
((lp144
(I7
I3
tp145
a(I5
I1
tp146
a(I2
I240
I0
I43
tp147
tp148
sS'22335484f61'
p149
((lp150
(I2
I2
tp151
ag91
a(I2
I154
I0
I26
tp152
tp153
sS'828384939495f344244535455'
p154
((lp155
(I9
I5
tp156
ag145
a(I2
I850
I0
I54
tp157
tp158
sS'137483849394f4245'
p159
((lp160
g124
a(I0
I3
tp161
a(I1
I51
I0
I0
tp162
tp163
sS'74828493f304245'
p164
((lp165
g107
a(I7
I5
tp166
a(I7
I3
tp167
a(I2
I206
I0
I31
tp168
tp169
sS'237382849394f425455'
p170
((lp171
(I8
I2
tp172
a(I6
I4
tp173
a(I4
I4
tp174
a(I6
I6
tp175
a(I2
I368
I0
I51
tp176
tp177
sS'235157626694f44'
p178
((lp179
(I6
I2
tp180
a(I4
I0
tp181
a(I2
I178
I0
I40
tp182
tp183
sS'134051576694f44'
p184
((lp185
g129
a(I0
I3
tp186
a(I1
I34
I0
I0
tp187
tp188
sS'33647484f41'
p189
((lp190
g51
a(I5
I4
tp191
a(I2
I109
I0
I28
tp192
tp193
sS'748283848593f424344455355'
p194
((lp195
g107
a(I7
I3
tp196
a(I2
I1164
I0
I51
tp197
tp198
sS'838492939495f424344455355'
p199
((lp200
g134
a(I8
I2
tp201
a(I2
I848
I0
I53
tp202
tp203
sS'33546484f51'
p204
((lp205
g44
a(I4
I4
tp206
ag151
a(I2
I114
I0
I30
tp207
tp208
sS'64737484f303445'
p209
((lp210
g167
a(I5
I5
tp211
a(I3
I5
tp212
a(I3
I3
tp213
a(I2
I133
I0
I32
tp214
tp215
sS'235766738494f44'
p216
((lp217
(I8
I4
tp218
ag180
a(I2
I201
I0
I47
tp219
tp220
sS'236673849394f43'
p221
((lp222
g11
a(I7
I5
tp223
a(I5
I7
tp224
a(I2
I153
I0
I48
tp225
tp226
sS'838492939495f344244455354'
p227
((lp228
(I9
I2
tp229
ag172
a(I2
I1041
I0
I53
tp230
tp231
sssI3
(dp232
g2
(dp233
S'558283849294f5253546377'
p234
((lp235
(I5
I3
tp236
a(I7
I3
tp237
a(I9
I1
tp238
a(I9
I3
tp239
a(I9
I5
tp240
a(I3
I16984
I452
I37
tp241
tp242
sS'8284a5f7077'
p243
((lp244
(I7
I7
tp245
a(I8
I6
tp246
a(I3
I782
I82
I7
tp247
tp248
sS'828492939495f434445525354'
p249
((lp250
(I4
I5
tp251
a(I6
I3
tp252
a(I3
I18909
I370
I53
tp253
tp254
sS'828384929394f445253546365'
p255
((lp256
(I6
I5
tp257
a(I6
I6
tp258
a(I3
I42216
I827
I56
tp259
tp260
sS'8294a4f7096'
p261
((lp262
(I9
I6
tp263
a(I10
I6
tp264
a(I3
I1236
I123
I9
tp265
tp266
sS'828494f7086'
p267
((lp268
g246
ag263
a(I3
I1303
I138
I9
tp269
tp270
sS'7384a5f6177'
p271
((lp272
(I6
I1
tp273
a(I7
I0
tp274
a(I3
I1569
I208
I6
tp275
tp276
sS'82a4b5f70b6'
p277
((lp278
(I11
I6
tp279
a(I12
I5
tp280
a(I3
I1191
I110
I7
tp281
tp282
sS'838492939495f424344455354'
p283
((lp284
(I4
I2
tp285
a(I5
I2
tp286
a(I3
I24013
I539
I52
tp287
tp288
sS'828392939495f434452535463'
p289
((lp290
(I4
I3
tp291
ag257
a(I3
I59439
I1472
I48
tp292
tp293
sS'738384f527795'
p294
((lp295
(I5
I2
tp296
ag273
a(I3
I2473
I196
I16
tp297
tp298
sS'828384929394f525354636466'
p299
((lp300
g258
ag245
a(I3
I49588
I1083
I59
tp301
tp302
sS'8283929394a4f445253546366'
p303
((lp304
(I4
I4
tp305
a(I6
I2
tp306
a(I6
I4
tp307
a(I3
I77549
I1895
I52
tp308
tp309
sS'82b4f70c5'
p310
((lp311
g280
a(I13
I4
tp312
a(I1
I11
I0
I0
tp313
tp314
sS'82a4b4f70a6'
p315
((lp316
g264
ag279
a(I3
I1177
I106
I8
tp317
tp318
ssg4
(dp319
S'56638394f47'
p320
((lp321
(I5
I6
tp322
a(I4
I5
tp323
a(I3
I1740
I28
I30
tp324
tp325
sS'838492939495f424445525354'
p326
((lp327
(I9
I2
tp328
a(I8
I2
tp329
a(I3
I38405
I1448
I53
tp330
tp331
sS'36456383f67'
p332
((lp333
(I3
I6
tp334
a(I2
I5
tp335
a(I3
I2688
I42
I27
tp336
tp337
sS'444663739394f97'
p338
((lp339
(I7
I3
tp340
a(I5
I3
tp341
a(I3
I5
tp342
a(I3
I6614
I81
I50
tp343
tp344
sS'828384939495f333442455354'
p345
((lp346
(I9
I5
tp347
a(I7
I3
tp348
a(I3
I14771
I347
I55
tp349
tp350
sS'267383849394f23333442'
p351
((lp352
(I2
I6
tp353
a(I1
I5
tp354
a(I3
I10190
I208
I46
tp355
tp356
sS'358384929394f4264'
p357
((lp358
(I9
I3
tp359
a(I7
I5
tp360
a(I5
I3
tp361
a(I3
I1
tp362
a(I1
I49
I0
I0
tp363
tp364
sS'8283849394f455254636477'
p365
((lp366
(I9
I3
tp367
a(I7
I3
tp368
a(I5
I3
tp369
a(I5
I5
tp370
a(I3
I5
tp371
a(I3
I42103
I934
I61
tp372
tp373
sS'828384869394f455253546364'
p374
((lp375
(I8
I6
tp376
a(I7
I6
tp377
a(I3
I65608
I1971
I60
tp378
tp379
sS'243544638394fc5'
p380
((lp381
g342
a(I1
I3
tp382
a(I2
I10343
I121
I55
tp383
tp384
sS'4163849395f87'
p385
((lp386
(I4
I1
tp387
a(I4
I2
tp388
a(I3
I3544
I59
I38
tp389
tp390
sS'828384939495f434452535455'
p391
((lp392
(I9
I5
tp393
ag340
a(I3
I26804
I869
I51
tp394
tp395
sS'456673829394f74'
p396
((lp397
g329
a(I6
I4
tp398
a(I8
I4
tp399
a(I1
I5
I0
I0
tp400
tp401
sS'8384929394f26435354'
p402
((lp403
(I9
I3
tp404
a(I7
I3
tp405
a(I3
I8810
I162
I47
tp406
tp407
sS'838492939495f424344455463'
p408
((lp409
(I9
I5
tp410
a(I7
I3
tp411
a(I5
I3
tp412
a(I3
I3
tp413
a(I5
I5
tp414
a(I3
I5
tp415
a(I3
I61731
I1279
I68
tp416
tp417
sS'73839294f2665'
p418
((lp419
(I9
I2
tp420
a(I7
I4
tp421
ag322
a(I3
I3443
I41
I34
tp422
tp423
sS'2635415482fc5'
p424
((lp425
(I4
I1
tp426
a(I3
I0
tp427
a(I2
I4855
I76
I37
tp428
tp429
sS'838492939495f424345535462'
p430
((lp431
(I9
I4
tp432
a(I7
I2
tp433
a(I5
I2
tp434
a(I3
I4
tp435
a(I5
I6
tp436
a(I3
I71409
I1927
I59
tp437
tp438
sS'3582838494f527477'
p439
((lp440
(I8
I3
tp441
a(I8
I5
tp442
a(I6
I3
tp443
ag426
a(I3
I5504
I75
I37
tp444
tp445
sS'7382849394f365355'
p446
((lp447
g329
a(I6
I4
tp448
a(I4
I6
tp449
a(I2
I6
tp450
a(I3
I14143
I250
I44
tp451
tp452
sS'157382839394f142433'
p453
((lp454
(I1
I5
tp455
a(I0
I4
tp456
a(I1
I50
I0
I0
tp457
tp458
sS'828384939495f444552535463'
p459
((lp460
g347
ag376
a(I3
I34758
I870
I54
tp461
tp462
sS'2673849394f43'
p463
((lp464
g450
a(I1
I5
tp465
a(I3
I3152
I47
I30
tp466
tp467
sS'357483849394f4254'
p468
((lp469
(I8
I3
tp470
a(I6
I5
tp471
a(I4
I3
tp472
a(I4
I1
tp473
a(I1
I18
I0
I0
tp474
tp475
sS'467382839394f5377'
p476
((lp477
(I8
I3
tp478
a(I6
I3
tp479
a(I3
I12152
I90
I56
tp480
tp481
sS'354446638394fb6'
p482
((lp483
(I4
I6
tp484
a(I2
I4
tp485
a(I3
I6635
I106
I52
tp486
tp487
sS'838492939495f424344535455'
p488
((lp489
g328
a(I8
I2
tp490
a(I3
I32653
I1100
I54
tp491
tp492
sS'738283849394f424452535455'
p493
((lp494
(I8
I3
tp495
a(I6
I3
tp496
a(I4
I1
tp497
a(I4
I3
tp498
a(I4
I5
tp499
a(I3
I7192
I148
I53
tp500
tp501
sS'358384929394f4253'
p502
((lp503
g328
a(I7
I4
tp504
a(I3
I7406
I77
I54
tp505
tp506
sS'14456383f87'
p507
((lp508
(I1
I4
tp509
a(I0
I3
tp510
a(I1
I26
I0
I0
tp511
tp512
sS'738283849394f333436424553'
p513
((lp514
(I8
I4
tp515
a(I6
I2
tp516
a(I4
I4
tp517
a(I4
I6
tp518
a(I2
I6
tp519
a(I3
I13486
I286
I56
tp520
tp521
sS'4263849395f97'
p522
((lp523
(I9
I5
tp524
a(I7
I3
tp525
a(I5
I3
tp526
a(I3
I1
tp527
a(I3
I4042
I71
I36
tp528
tp529
sS'457382849394f6475'
p530
((lp531
(I8
I4
tp532
a(I6
I6
tp533
a(I3
I800
I34
I1
tp534
tp535
sS'3541546482fb6'
p536
((lp537
(I6
I4
tp538
a(I4
I4
tp539
a(I2
I6
tp540
a(I3
I5173
I54
I35
tp541
tp542
sS'1573849394f33'
p543
((lp544
g465
a(I0
I4
tp545
a(I1
I37
I0
I0
tp546
tp547
sS'838492939495f434445535464'
p548
((lp549
(I9
I5
tp550
a(I7
I3
tp551
a(I5
I5
tp552
a(I3
I5
tp553
a(I3
I63154
I1537
I56
tp554
tp555
sS'2242638494fc4'
p556
((lp557
(I8
I4
tp558
a(I7
I3
tp559
a(I2
I6876
I133
I42
tp560
tp561
sS'25456383f77'
p562
((lp563
g335
ag509
a(I3
I1457
I17
I20
tp564
tp565
sS'2242637394fb4'
p566
((lp567
(I6
I3
tp568
a(I8
I3
tp569
a(I10
I5
tp570
a(I12
I3
tp571
a(I1
I10
I0
I0
tp572
tp573
sS'828384939495f424552535455'
p574
((lp575
(I9
I5
tp576
a(I7
I3
tp577
a(I3
I27999
I920
I51
tp578
tp579
sS'8384929395f425457'
p580
((lp581
(I9
I2
tp582
a(I7
I4
tp583
a(I3
I5666
I72
I48
tp584
tp585
sS'3541748284f97'
p586
((lp587
(I8
I4
tp588
ag538
a(I3
I4180
I36
I38
tp589
tp590
sS'838492939495f434445525354'
p591
((lp592
(I9
I2
tp593
a(I8
I2
tp594
a(I3
I34787
I1202
I53
tp595
tp596
sS'45638394f57'
p597
((lp598
(I9
I4
tp599
a(I7
I2
tp600
a(I5
I4
tp601
ag334
a(I3
I2082
I37
I32
tp602
tp603
sS'4174849395f77'
p604
((lp605
g583
a(I6
I3
tp606
a(I3
I4522
I83
I41
tp607
tp608
sS'3142638494fb5'
p609
((lp610
g527
a(I2
I2
tp611
a(I3
I5471
I117
I39
tp612
tp613
sS'828384939495f424452535455'
p614
((lp615
g393
a(I7
I3
tp616
a(I3
I18052
I346
I53
tp617
tp618
sS'7383849294f26535463'
p619
((lp620
(I8
I4
tp621
a(I6
I2
tp622
a(I4
I4
tp623
a(I6
I4
tp624
a(I3
I15489
I389
I51
tp625
tp626
sS'466373829394f5387'
p627
((lp628
g490
a(I6
I4
tp629
a(I6
I2
tp630
a(I4
I4
tp631
a(I3
I6853
I55
I58
tp632
tp633
sS'267382839394f243334'
p634
((lp635
g519
ag455
a(I3
I25605
I806
I45
tp636
tp637
sS'56738394f37'
p638
((lp639
g405
a(I6
I3
tp640
a(I3
I1859
I10
I30
tp641
tp642
sS'738283849394f425253545564'
p643
((lp644
(I8
I3
tp645
a(I6
I3
tp646
a(I4
I1
tp647
a(I4
I3
tp648
a(I6
I5
tp649
a(I4
I5
tp650
a(I3
I6853
I156
I51
tp651
tp652
sS'738283849394f435253545566'
p653
((lp654
g532
a(I6
I2
tp655
a(I4
I2
tp656
a(I4
I4
tp657
a(I6
I4
tp658
ag484
a(I3
I22095
I561
I60
tp659
tp660
sS'157383849394f13233442'
p661
((lp662
g354
a(I0
I4
tp663
a(I1
I51
I0
I0
tp664
tp665
sS'2630355482fc4'
p666
((lp667
(I5
I4
tp668
a(I4
I3
tp669
a(I2
I4747
I101
I33
tp670
tp671
sS'7483849395f425467'
p672
((lp673
(I8
I3
tp674
a(I6
I5
tp675
a(I4
I3
tp676
ag387
a(I3
I10912
I131
I52
tp677
tp678
sS'3541828494f87'
p679
((lp680
(I9
I4
tp681
a(I7
I4
tp682
a(I3
I4346
I41
I38
tp683
tp684
sS'3142638493fa6'
p685
((lp686
(I9
I3
tp687
a(I9
I4
tp688
a(I3
I4401
I78
I36
tp689
tp690
sS'838492939495f334244455354'
p691
((lp692
g593
a(I8
I2
tp693
a(I3
I30563
I1181
I54
tp694
tp695
sS'354446639394fa7'
p696
((lp697
(I9
I3
tp698
a(I8
I3
tp699
a(I3
I5475
I49
I47
tp700
tp701
sS'738283849394f333435424554'
p702
((lp703
g693
a(I6
I4
tp704
a(I4
I4
tp705
ag353
a(I3
I26260
I667
I52
tp706
tp707
sS'3541647482fa6'
p708
((lp709
g682
ag668
a(I3
I5304
I84
I32
tp710
tp711
sss.