(dp0
I1
(dp1
S'north'
p2
(dp3
S'3373b3f5685'
p4
((lp5
(I8
I5
tp6
a(I9
I4
tp7
a(I1
I17
I0
I0
tp8
tp9
sS'7384b3f535667'
p10
((lp11
(I6
I7
tp12
a(I7
I6
tp13
a(I1
I21
I0
I0
tp14
tp15
sS'8384b3f455356'
p16
((lp17
(I4
I5
tp18
ag12
a(I1
I25
I0
I0
tp19
tp20
sS'2373b3f5694'
p21
((lp22
g7
a(I10
I5
tp23
a(I1
I17
I0
I0
tp24
tp25
sS'4473b3f5676'
p26
((lp27
g13
ag6
a(I1
I17
I0
I0
tp28
tp29
sS'7483849394f43455356'
p30
((lp31
(I4
I3
tp32
a(I6
I3
tp33
a(I8
I5
tp34
a(I10
I3
tp35
a(I1
I38
I0
I0
tp36
tp37
sS'0373b3f56b5'
p38
((lp39
(ta(I0
I1
I0
I0
tp40
tp41
sS'838492939495f424344455354'
p42
((lp43
(I4
I2
tp44
a(I6
I4
tp45
a(I1
I59
I0
I0
tp46
tp47
sS'0473b3f56b5'
p48
((lp49
(ta(I0
I1
I0
I0
tp50
tp51
sS'1373b3f56a5'
p52
((lp53
g23
a(I11
I5
tp54
a(I1
I17
I0
I0
tp55
tp56
sS'338384929394f43455354'
p57
((lp58
(I5
I4
tp59
a(I3
I2
tp60
a(I3
I4
tp61
a(I5
I6
tp62
a(I1
I38
I0
I0
tp63
tp64
ssS'south'
p65
(dp66
S'4473b3f5685'
p67
((lp68
(I4
I4
tp69
a(I3
I3
tp70
a(I1
I25
I0
I0
tp71
tp72
sS'3373b3f5694'
p73
((lp74
g70
a(I2
I3
tp75
a(I1
I25
I0
I0
tp76
tp77
sS'7384b3f535676'
p78
((lp79
(I8
I4
tp80
a(I6
I2
tp81
ag69
a(I1
I26
I0
I0
tp82
tp83
sS'8384929394f43455356'
p84
((lp85
(I9
I2
tp86
a(I7
I4
tp87
a(I1
I50
I0
I0
tp88
tp89
sS'1373b3f56b5'
p90
((lp91
(I1
I3
tp92
a(I0
I3
tp93
a(I1
I18
I0
I0
tp94
tp95
sS'838492939495f424344455354'
p96
((lp97
(I9
I2
tp98
a(I7
I4
tp99
a(I1
I59
I0
I0
tp100
tp101
sS'838493f455356a3'
p102
((lp103
(I9
I3
tp104
a(I11
I3
tp105
a(I1
I28
I0
I0
tp106
tp107
sS'358384929394f4264'
p108
((lp109
(I9
I3
tp110
a(I7
I5
tp111
a(I5
I3
tp112
a(I3
I1
tp113
a(I1
I41
I0
I0
tp114
tp115
sS'8384b3f535667'
p116
((lp117
(I8
I3
tp118
a(I7
I3
tp119
a(I1
I25
I0
I0
tp120
tp121
sS'838492939495f434445535464'
p122
((lp123
(I9
I5
tp124
a(I7
I3
tp125
a(I5
I5
tp126
a(I3
I3
tp127
a(I1
I65
I0
I0
tp128
tp129
sS'0373b3f56b5'
p130
((lp131
g93
a(I0
I4
tp132
a(I1
I18
I0
I0
tp133
tp134
sS'2373b3f56a5'
p135
((lp136
g75
ag92
a(I1
I25
I0
I0
tp137
tp138
sS'838492939495f424344455463'
p139
((lp140
(I9
I5
tp141
a(I7
I3
tp142
a(I5
I3
tp143
a(I3
I3
tp144
a(I5
I5
tp145
a(I3
I5
tp146
a(I1
I79
I0
I0
tp147
tp148
sS'0473b3f56b5'
p149
((lp150
g132
a(I0
I3
tp151
a(I1
I18
I0
I0
tp152
tp153
sssI2
(dp154
g2
(dp155
S'9394a3a6f4452535463'
p156
((lp157
(I4
I4
tp158
a(I6
I2
tp159
a(I6
I4
tp160
a(I2
I406
I0
I44
tp161
tp162
sS'a4f52546373a2'
p163
((lp164
(I10
I2
tp165
a(I11
I2
tp166
a(I2
I143
I0
I37
tp167
tp168
sS'b4f52546373b2'
p169
((lp170
g166
a(I12
I3
tp171
a(I2
I138
I0
I36
tp172
tp173
sS'678392939495f525354556364'
p174
((lp175
(I6
I3
tp176
a(I4
I3
tp177
a(I2
I1122
I0
I56
tp178
tp179
sS'839394a6f4344525354'
p180
((lp181
(I4
I3
tp182
a(I4
I5
tp183
a(I6
I3
tp184
a(I2
I360
I0
I45
tp185
tp186
sS'148392939495f525354667787'
p187
((lp188
(I5
I2
tp189
a(I4
I1
tp190
a(I2
I1920
I0
I45
tp191
tp192
sS'838492939495f434452535463'
p193
((lp194
(I4
I4
tp195
a(I5
I5
tp196
a(I2
I751
I0
I46
tp197
tp198
sS'c4f52546373c3'
p199
((lp200
g171
a(I12
I5
tp201
a(I1
I42
I0
I0
tp202
tp203
sS'478392939495f525354556364'
p204
((lp205
(I6
I4
tp206
a(I4
I4
tp207
a(I6
I6
tp208
a(I2
I816
I0
I55
tp209
tp210
sS'778392939495f435253545564'
p211
((lp212
(I4
I3
tp213
ag176
a(I2
I905
I0
I50
tp214
tp215
sS'748384939495f434445525354'
p216
((lp217
(I4
I5
tp218
a(I6
I3
tp219
a(I8
I5
tp220
a(I10
I5
tp221
a(I2
I693
I0
I56
tp222
tp223
sS'828384939495f434445525354'
p224
((lp225
(I4
I5
tp226
a(I6
I3
tp227
a(I2
I499
I0
I53
tp228
tp229
sS'838492939495f434445525354'
p230
((lp231
(I4
I5
tp232
a(I6
I3
tp233
a(I2
I565
I0
I53
tp234
tp235
sS'258392939495f525354636677'
p236
((lp237
(I6
I3
tp238
a(I4
I3
tp239
a(I6
I5
tp240
a(I6
I7
tp241
a(I8
I7
tp242
a(I2
I328
I0
I42
tp243
tp244
sS'838492939495f424344455354'
p245
((lp246
(I4
I2
tp247
ag189
a(I2
I697
I0
I52
tp248
tp249
sS'368392939495f525354556366'
p250
((lp251
g196
a(I7
I7
tp252
a(I2
I357
I0
I51
tp253
tp254
sS'9394a3a5f5253546364'
p255
((lp256
(I5
I3
tp257
a(I5
I5
tp258
a(I7
I3
tp259
a(I2
I385
I0
I44
tp260
tp261
sS'839394a3f5254636473'
p262
((lp263
g160
a(I6
I2
tp264
a(I8
I4
tp265
a(I8
I2
tp266
a(I10
I4
tp267
ag165
a(I2
I336
I0
I55
tp268
tp269
sS'838692939495f435253545563'
p270
((lp271
(I6
I3
tp272
ag206
a(I2
I1117
I0
I38
tp273
tp274
sS'578392939495f435253545564'
p275
((lp276
g177
ag238
a(I2
I701
I0
I51
tp277
tp278
ssg65
(dp279
S'1525647483fa0'
p280
((lp281
(I1
I5
tp282
a(I0
I4
tp283
a(I1
I34
I0
I0
tp284
tp285
sS'247483849394f4244'
p286
((lp287
(I2
I4
tp288
a(I1
I3
tp289
a(I2
I277
I0
I51
tp290
tp291
sS'73748284f304345'
p292
((lp293
(I8
I2
tp294
a(I6
I4
tp295
a(I2
I164
I0
I32
tp296
tp297
sS'838492939495f424445535465'
p298
((lp299
(I9
I3
tp300
a(I7
I5
tp301
a(I5
I5
tp302
a(I3
I3
tp303
a(I5
I1
tp304
a(I2
I1145
I0
I60
tp305
tp306
sS'2574828393f4460'
p307
((lp308
(I8
I2
tp309
a(I8
I4
tp310
a(I6
I4
tp311
a(I2
I223
I0
I41
tp312
tp313
sS'738283848593f424344525354'
p314
((lp315
(I9
I3
tp316
a(I9
I4
tp317
a(I2
I1214
I0
I41
tp318
tp319
sS'738283849394f424344455355'
p320
((lp321
(I9
I4
tp322
a(I8
I5
tp323
a(I2
I1367
I0
I49
tp324
tp325
sS'778392939495f525354556364'
p326
((lp327
(I7
I7
tp328
a(I6
I7
tp329
a(I2
I1166
I0
I37
tp330
tp331
sS'22335484f61'
p332
((lp333
(I2
I2
tp334
a(I1
I3
tp335
a(I2
I154
I0
I26
tp336
tp337
sS'2564747583f4480'
p338
((lp339
(I7
I5
tp340
a(I5
I3
tp341
a(I3
I5
tp342
a(I1
I5
tp343
a(I2
I182
I0
I42
tp344
tp345
sS'838492939495f424344455455'
p346
((lp347
(I9
I2
tp348
a(I8
I2
tp349
a(I2
I1259
I0
I53
tp350
tp351
sS'828384939495f424344455264'
p352
((lp353
(I9
I3
tp354
a(I7
I5
tp355
a(I5
I3
tp356
a(I3
I3
tp357
a(I5
I5
tp358
a(I3
I5
tp359
a(I2
I859
I0
I75
tp360
tp361
sS'838492939495f424344455355'
p362
((lp363
(I9
I2
tp364
a(I8
I2
tp365
a(I2
I848
I0
I53
tp366
tp367
sS'33546484f51'
p368
((lp369
g295
a(I4
I4
tp370
ag334
a(I2
I114
I0
I30
tp371
tp372
sS'236673849394f43'
p373
((lp374
g300
a(I7
I5
tp375
a(I5
I7
tp376
a(I2
I153
I0
I48
tp377
tp378
sS'64737484f303445'
p379
((lp380
(I7
I3
tp381
a(I5
I5
tp382
a(I3
I5
tp383
a(I3
I3
tp384
a(I2
I133
I0
I32
tp385
tp386
sS'838492939495f424445525354'
p387
((lp388
(I9
I2
tp389
a(I8
I2
tp390
a(I2
I1042
I0
I53
tp391
tp392
sS'738283848593f424344455354'
p393
((lp394
(I9
I3
tp395
a(I9
I4
tp396
a(I2
I1096
I0
I39
tp397
tp398
sS'678392939495f435253545564'
p399
((lp400
g329
a(I5
I7
tp401
a(I2
I938
I0
I39
tp402
tp403
sS'748283848593f424445525354'
p404
((lp405
(I8
I3
tp406
a(I6
I5
tp407
a(I4
I3
tp408
a(I4
I1
tp409
a(I2
I435
I0
I59
tp410
tp411
sS'828384939495f434445525354'
p412
((lp413
(I9
I5
tp414
a(I7
I3
tp415
a(I2
I954
I0
I52
tp416
tp417
sS'518384929495f455462'
p418
((lp419
(I9
I4
tp420
a(I7
I2
tp421
a(I5
I2
tp422
a(I5
I0
tp423
a(I2
I677
I0
I60
tp424
tp425
sS'578392939495f525354556364'
p426
((lp427
g401
a(I4
I7
tp428
a(I2
I1027
I0
I38
tp429
tp430
sS'828384939495f424344455354'
p431
((lp432
(I9
I5
tp433
a(I7
I3
tp434
a(I2
I1001
I0
I52
tp435
tp436
sS'838492939495f424344455463'
p437
((lp438
(I9
I5
tp439
a(I7
I3
tp440
a(I5
I3
tp441
a(I3
I3
tp442
a(I5
I5
tp443
a(I3
I5
tp444
a(I2
I997
I0
I70
tp445
tp446
sS'478392939495f525354556366'
p447
((lp448
g428
a(I3
I6
tp449
a(I2
I675
I0
I42
tp450
tp451
sS'828384939495f444552535463'
p452
((lp453
g309
a(I9
I2
tp454
a(I2
I1617
I0
I52
tp455
tp456
sS'358384929394f4255'
p457
((lp458
g444
ag288
a(I2
I321
I0
I53
tp459
tp460
sS'828384939495f434452535463'
p461
((lp462
g309
a(I9
I2
tp463
a(I2
I1315
I0
I52
tp464
tp465
sS'828384939495f344244535455'
p466
((lp467
(I9
I5
tp468
a(I7
I3
tp469
a(I2
I850
I0
I54
tp470
tp471
sS'838492939495f434445525354'
p472
((lp473
(I9
I2
tp474
ag309
a(I2
I1071
I0
I53
tp475
tp476
sS'3674828393f4450'
p477
((lp478
(I3
I6
tp479
a(I2
I5
tp480
a(I2
I205
I0
I39
tp481
tp482
sS'237382848594f345354'
p483
((lp484
(I2
I3
tp485
a(I4
I5
tp486
a(I6
I3
tp487
a(I4
I3
tp488
a(I1
I73
I0
I0
tp489
tp490
sS'828384939495f424445525463'
p491
((lp492
(I9
I5
tp493
a(I7
I3
tp494
a(I5
I3
tp495
a(I5
I1
tp496
a(I3
I3
tp497
a(I2
I1014
I0
I60
tp498
tp499
sS'4674828393f4044'
p500
((lp501
(I4
I6
tp502
ag479
a(I2
I287
I0
I40
tp503
tp504
sS'748283848593f424344455355'
p505
((lp506
(I9
I3
tp507
a(I7
I3
tp508
a(I2
I1164
I0
I51
tp509
tp510
sS'258283849495f4452'
p511
((lp512
(I2
I5
tp513
a(I1
I4
tp514
a(I2
I388
I0
I51
tp515
tp516
sS'235157626694f44'
p517
((lp518
(I6
I2
tp519
a(I4
I0
tp520
a(I2
I178
I0
I40
tp521
tp522
sS'738283849394f434445525354'
p523
((lp524
(I9
I4
tp525
a(I8
I5
tp526
a(I2
I1359
I0
I50
tp527
tp528
sS'505183849295f4553'
p529
((lp530
g423
a(I5
I2
tp531
a(I5
I4
tp532
a(I3
I6
tp533
a(I1
I51
I0
I0
tp534
tp535
sS'358384929394f4244'
p536
((lp537
g444
a(I5
I3
tp538
a(I3
I1
tp539
a(I1
I57
I0
I0
tp540
tp541
sS'828384939495f424345525354'
p542
((lp543
(I9
I5
tp544
a(I7
I3
tp545
a(I2
I989
I0
I52
tp546
tp547
sS'358283849495f4352'
p548
((lp549
g359
ag513
a(I2
I712
I0
I54
tp550
tp551
sS'7482838493f4043455354'
p552
((lp553
(I8
I4
tp554
a(I6
I4
tp555
a(I4
I2
tp556
a(I4
I4
tp557
ag502
a(I2
I498
I0
I45
tp558
tp559
sS'838492939495f424344455254'
p560
((lp561
(I9
I2
tp562
a(I8
I2
tp563
a(I2
I857
I0
I53
tp564
tp565
sS'738283848594f424344455355'
p566
((lp567
g396
a(I7
I2
tp568
a(I7
I4
tp569
a(I2
I1137
I0
I53
tp570
tp571
sS'2564748393f4470'
p572
((lp573
g507
a(I7
I3
tp574
ag340
a(I5
I3
tp575
a(I3
I5
tp576
a(I1
I5
tp577
a(I2
I193
I0
I43
tp578
tp579
sS'748283848593f434445525354'
p580
((lp581
g526
a(I6
I3
tp582
a(I4
I1
tp583
a(I2
I1334
I0
I54
tp584
tp585
sS'738283848594f334244525354'
p586
((lp587
(I8
I3
tp588
a(I6
I3
tp589
a(I4
I1
tp590
a(I4
I3
tp591
ag485
a(I2
I323
I0
I57
tp592
tp593
sS'338384929394f42444565'
p594
((lp595
(I9
I3
tp596
a(I7
I5
tp597
a(I5
I5
tp598
a(I3
I5
tp599
a(I5
I3
tp600
a(I3
I1
tp601
a(I1
I46
I0
I0
tp602
tp603
sS'738283848594f434445525354'
p604
((lp605
g396
a(I7
I2
tp606
a(I7
I4
tp607
a(I2
I1391
I0
I56
tp608
tp609
sS'248384929394f4264'
p610
((lp611
(I9
I3
tp612
a(I7
I5
tp613
a(I5
I3
tp614
a(I3
I1
tp615
a(I1
I41
I0
I0
tp616
tp617
sS'737482838485f424344455354'
p618
((lp619
g434
a(I7
I5
tp620
ag507
a(I2
I1498
I0
I52
tp621
tp622
sS'234051576694f43'
p623
((lp624
(I2
I3
tp625
a(I1
I3
tp626
a(I2
I160
I0
I37
tp627
tp628
sS'828384939495f424344455154'
p629
((lp630
(I9
I5
tp631
a(I7
I3
tp632
a(I2
I959
I0
I51
tp633
tp634
sS'828384939495f424344455253'
p635
((lp636
(I9
I5
tp637
a(I7
I3
tp638
a(I2
I1169
I0
I52
tp639
tp640
sS'148392939495f415354667787'
p641
((lp642
(I1
I4
tp643
a(I0
I3
tp644
a(I1
I42
I0
I0
tp645
tp646
sS'368392939495f525354636677'
p647
((lp648
g449
a(I2
I5
tp649
a(I2
I782
I0
I42
tp650
tp651
sS'64839394f42436392'
p652
((lp653
(I9
I4
tp654
a(I7
I2
tp655
a(I5
I4
tp656
a(I3
I2
tp657
a(I5
I2
tp658
a(I2
I183
I0
I39
tp659
tp660
sS'134051576694f44'
p661
((lp662
g626
a(I0
I3
tp663
a(I1
I34
I0
I0
tp664
tp665
sS'33647484f41'
p666
((lp667
g569
a(I5
I4
tp668
a(I2
I109
I0
I28
tp669
tp670
sS'738283849394f434445525463'
p671
((lp672
g415
a(I5
I3
tp673
a(I3
I3
tp674
a(I5
I5
tp675
a(I3
I5
tp676
a(I2
I1500
I0
I47
tp677
tp678
sS'235766738494f44'
p679
((lp680
(I8
I4
tp681
ag519
a(I2
I201
I0
I47
tp682
tp683
sS'74828493f304245'
p684
((lp685
g507
a(I7
I5
tp686
ag381
a(I2
I206
I0
I31
tp687
tp688
sS'838492939495f344244455354'
p689
((lp690
(I9
I2
tp691
a(I8
I2
tp692
a(I2
I1041
I0
I53
tp693
tp694
sS'46525583fc3'
p695
((lp696
(I8
I3
tp697
a(I7
I2
tp698
a(I2
I225
I0
I32
tp699
tp700
sS'358384929394f4264'
p701
((lp702
(I9
I3
tp703
a(I7
I5
tp704
a(I5
I3
tp705
a(I3
I1
tp706
a(I1
I41
I0
I0
tp707
tp708
sS'358283849394f4452'
p709
((lp710
(I3
I5
tp711
a(I5
I3
tp712
a(I5
I1
tp713
a(I1
I57
I0
I0
tp714
tp715
sS'838492939495f444552536372'
p716
((lp717
(I8
I4
tp718
a(I8
I2
tp719
a(I6
I2
tp720
a(I4
I2
tp721
a(I6
I4
tp722
a(I2
I976
I0
I62
tp723
tp724
sS'13335484f71'
p725
((lp726
g335
a(I0
I3
tp727
a(I1
I26
I0
I0
tp728
tp729
sS'738283849394f344244535456'
p730
((lp731
(I8
I3
tp732
a(I6
I3
tp733
a(I4
I3
tp734
a(I4
I5
tp735
ag625
a(I2
I280
I0
I56
tp736
tp737
sS'7482848593f30444553'
p738
((lp739
g323
a(I6
I3
tp740
a(I4
I3
tp741
a(I2
I318
I0
I48
tp742
tp743
sS'338283849394f344554'
p744
((lp745
g497
a(I3
I5
tp746
a(I5
I5
tp747
a(I5
I3
tp748
a(I1
I57
I0
I0
tp749
tp750
sS'538384929394f4243444555'
p751
((lp752
g441
a(I3
I3
tp753
a(I5
I1
tp754
a(I2
I934
I0
I51
tp755
tp756
sS'8392939495f444565'
p757
((lp758
g454
a(I7
I4
tp759
a(I5
I6
tp760
a(I3
I4
tp761
a(I5
I4
tp762
a(I1
I40
I0
I0
tp763
tp764
sS'738283849394f424345525354'
p765
((lp766
(I9
I4
tp767
a(I8
I5
tp768
a(I2
I1506
I0
I52
tp769
tp770
sS'148283849495f5254'
p771
((lp772
g514
a(I0
I3
tp773
a(I1
I54
I0
I0
tp774
tp775
sS'828384939495f434445525463'
p776
((lp777
(I9
I5
tp778
a(I7
I3
tp779
a(I5
I3
tp780
a(I3
I3
tp781
a(I5
I5
tp782
ag711
a(I2
I871
I0
I58
tp783
tp784
sS'248384929394f4245'
p785
((lp786
g364
a(I7
I4
tp787
a(I2
I242
I0
I54
tp788
tp789
sS'2535647483f90'
p790
((lp791
g342
ag282
a(I2
I152
I0
I35
tp792
tp793
sS'235762667394f45'
p794
((lp795
g469
a(I5
I1
tp796
a(I2
I240
I0
I43
tp797
tp798
sS'52556483fb2'
p799
((lp800
(I6
I4
tp801
a(I4
I6
tp802
a(I2
I181
I0
I29
tp803
tp804
sS'258392939495f525354667787'
p805
((lp806
g649
ag643
a(I2
I466
I0
I44
tp807
tp808
sS'237382849394f425455'
p809
((lp810
g692
a(I6
I4
tp811
a(I4
I4
tp812
a(I6
I6
tp813
a(I2
I368
I0
I51
tp814
tp815
sS'137483849394f4245'
p816
((lp817
g289
a(I0
I3
tp818
a(I1
I51
I0
I0
tp819
tp820
sS'838492939495f435253545563'
p821
((lp822
(I8
I4
tp823
a(I8
I2
tp824
a(I10
I4
tp825
a(I8
I6
tp826
a(I2
I1472
I0
I52
tp827
tp828
sS'738283849394f424352535463'
p829
((lp830
(I8
I4
tp831
a(I6
I2
tp832
a(I4
I4
tp833
ag801
a(I2
I1297
I0
I48
tp834
tp835
sS'838692939495f435253545564'
p836
((lp837
g826
ag328
a(I2
I804
I0
I52
tp838
tp839
sS'52648393fa1'
p840
((lp841
(I9
I3
tp842
a(I7
I3
tp843
a(I5
I5
tp844
a(I2
I105
I0
I30
tp845
tp846
sssI3
(dp847
g2
(dp848
S'838485929394f434445525354'
p849
((lp850
g218
a(I6
I3
tp851
a(I3
I21371
I403
I53
tp852
tp853
sS'8284a5f7077'
p854
((lp855
(I7
I7
tp856
a(I8
I6
tp857
a(I3
I782
I82
I7
tp858
tp859
sS'738384929394f434445525354'
p860
((lp861
(I4
I4
tp862
a(I4
I2
tp863
a(I6
I4
tp864
a(I8
I2
tp865
a(I10
I2
tp866
a(I3
I40219
I988
I58
tp867
tp868
sS'828384929394f445253546365'
p869
((lp870
(I6
I5
tp871
a(I6
I6
tp872
a(I3
I42216
I827
I56
tp873
tp874
sS'728283848693f435253545563'
p875
((lp876
(I5
I2
tp877
a(I7
I4
tp878
a(I9
I2
tp879
a(I3
I20465
I531
I45
tp880
tp881
sS'8294a4f7096'
p882
((lp883
(I9
I6
tp884
a(I10
I6
tp885
a(I3
I1236
I123
I9
tp886
tp887
sS'828384939495f434445525354'
p888
((lp889
g226
a(I6
I3
tp890
a(I3
I18061
I447
I53
tp891
tp892
sS'82b4f70c5'
p893
((lp894
(I12
I5
tp895
a(I13
I4
tp896
a(I1
I11
I0
I0
tp897
tp898
sS'738485929394f434452535463'
p899
((lp900
g158
a(I4
I2
tp901
a(I6
I2
tp902
a(I6
I4
tp903
a(I8
I2
tp904
a(I10
I4
tp905
a(I3
I43419
I1191
I60
tp906
tp907
sS'7282838693f435354556392'
p908
((lp909
(I5
I3
tp910
a(I7
I3
tp911
a(I9
I1
tp912
a(I3
I37034
I1133
I44
tp913
tp914
sS'9495f444552535481'
p915
((lp916
g218
a(I4
I3
tp917
a(I6
I1
tp918
a(I3
I6889
I94
I55
tp919
tp920
sS'33728386f54559192'
p921
((lp922
(I9
I1
tp923
a(I9
I3
tp924
a(I7
I3
tp925
a(I7
I1
tp926
a(I3
I13092
I584
I28
tp927
tp928
sS'46f535463b2'
p929
((lp930
(I5
I3
tp931
a(I5
I5
tp932
a(I3
I7
tp933
a(I1
I16
I0
I0
tp934
tp935
sS'828384929394f525354636466'
p936
((lp937
g872
ag856
a(I3
I49588
I1083
I59
tp938
tp939
sS'7384a5f6177'
p940
((lp941
(I6
I1
tp942
a(I7
I0
tp943
a(I3
I1569
I208
I6
tp944
tp945
sS'82a4b4f70a6'
p946
((lp947
g885
a(I11
I6
tp948
a(I3
I1177
I106
I8
tp949
tp950
sS'738384f527795'
p951
((lp952
(I5
I2
tp953
ag942
a(I3
I2473
I196
I16
tp954
tp955
sS'8283929394a4f445253546366'
p956
((lp957
(I4
I4
tp958
a(I6
I2
tp959
a(I6
I4
tp960
a(I3
I77549
I1895
I52
tp961
tp962
sS'728492939495f434445525354'
p963
((lp964
g182
a(I6
I1
tp965
a(I8
I3
tp966
a(I8
I5
tp967
a(I10
I3
tp968
a(I8
I1
tp969
a(I3
I28243
I447
I80
tp970
tp971
sS'568493a2f52535463'
p972
((lp973
(I5
I2
tp974
a(I7
I4
tp975
a(I9
I4
tp976
a(I9
I2
tp977
a(I11
I2
tp978
a(I3
I5302
I118
I35
tp979
tp980
sS'828384869394f434452535463'
p981
((lp982
(I4
I4
tp983
a(I5
I5
tp984
a(I3
I42136
I1004
I55
tp985
tp986
sS'1286f54558192'
p987
((lp988
(I5
I5
tp989
a(I4
I4
tp990
a(I2
I5111
I211
I32
tp991
tp992
sS'81849294f4352535463'
p993
((lp994
(I5
I3
tp995
a(I7
I3
tp996
a(I9
I5
tp997
a(I9
I3
tp998
a(I9
I1
tp999
a(I7
I1
tp1000
a(I1
I26
I0
I0
tp1001
tp1002
sS'2286f54557192'
p1003
((lp1004
g926
a(I8
I1
tp1005
a(I3
I3169
I110
I25
tp1006
tp1007
sS'9394f445253546181'
p1008
((lp1009
g969
a(I7
I2
tp1010
a(I3
I16659
I310
I54
tp1011
tp1012
sS'828492939495f434445525354'
p1013
((lp1014
(I4
I5
tp1015
a(I6
I3
tp1016
a(I3
I18909
I370
I53
tp1017
tp1018
sS'828494f7086'
p1019
((lp1020
g857
ag884
a(I3
I1303
I138
I9
tp1021
tp1022
sS'849394a1f4345525354'
p1023
((lp1024
(I4
I5
tp1025
a(I6
I3
tp1026
a(I3
I6765
I169
I39
tp1027
tp1028
sS'849394a2f4352535463'
p1029
((lp1030
(I4
I3
tp1031
a(I6
I5
tp1032
a(I3
I16151
I389
I31
tp1033
tp1034
sS'82a4b5f70b6'
p1035
((lp1036
g948
ag895
a(I3
I1191
I110
I7
tp1037
tp1038
sS'828392939495f434452535463'
p1039
((lp1040
(I4
I3
tp1041
ag871
a(I3
I59439
I1472
I48
tp1042
tp1043
sS'838492939495f424344455354'
p1044
((lp1045
(I4
I2
tp1046
ag974
a(I3
I24013
I539
I52
tp1047
tp1048
sS'558283849294f5253546377'
p1049
((lp1050
(I5
I3
tp1051
a(I7
I3
tp1052
a(I9
I1
tp1053
a(I9
I3
tp1054
a(I9
I5
tp1055
a(I3
I16984
I452
I37
tp1056
tp1057
sS'9294f445253546172'
p1058
((lp1059
g918
a(I4
I3
tp1060
a(I4
I5
tp1061
a(I6
I3
tp1062
a(I8
I1
tp1063
a(I10
I3
tp1064
a(I8
I5
tp1065
a(I1
I51
I0
I0
tp1066
tp1067
ssg65
(dp1068
S'828384939495f434452535455'
p1069
((lp1070
(I9
I5
tp1071
a(I7
I3
tp1072
a(I3
I26804
I869
I51
tp1073
tp1074
sS'5375828694f67'
p1075
((lp1076
(I9
I4
tp1077
a(I8
I5
tp1078
a(I3
I2548
I26
I39
tp1079
tp1080
sS'828384939495f424445525354'
p1081
((lp1082
(I9
I5
tp1083
a(I7
I3
tp1084
a(I3
I25172
I784
I51
tp1085
tp1086
sS'7382849394f365355'
p1087
((lp1088
(I8
I2
tp1089
a(I6
I4
tp1090
a(I4
I6
tp1091
a(I2
I6
tp1092
a(I3
I14143
I250
I44
tp1093
tp1094
sS'157382839394f142433'
p1095
((lp1096
(I1
I5
tp1097
a(I0
I4
tp1098
a(I1
I50
I0
I0
tp1099
tp1100
sS'828384869293f525354626364'
p1101
((lp1102
(I8
I4
tp1103
ag1077
a(I3
I43988
I912
I61
tp1104
tp1105
sS'5275828694f56'
p1106
((lp1107
(I5
I2
tp1108
a(I5
I3
tp1109
a(I3
I3148
I34
I38
tp1110
tp1111
sS'357483849394f4254'
p1112
((lp1113
(I8
I3
tp1114
a(I6
I5
tp1115
a(I4
I3
tp1116
a(I4
I1
tp1117
a(I1
I18
I0
I0
tp1118
tp1119
sS'738283849394f424452535455'
p1120
((lp1121
(I8
I3
tp1122
a(I6
I3
tp1123
a(I4
I1
tp1124
a(I4
I3
tp1125
a(I4
I5
tp1126
a(I3
I7192
I148
I53
tp1127
tp1128
sS'738283849394f333436424553'
p1129
((lp1130
(I8
I4
tp1131
a(I6
I2
tp1132
a(I4
I4
tp1133
a(I4
I6
tp1134
a(I2
I6
tp1135
a(I3
I13486
I286
I56
tp1136
tp1137
sS'3541546482fb6'
p1138
((lp1139
(I6
I4
tp1140
a(I4
I4
tp1141
a(I2
I6
tp1142
a(I3
I5173
I54
I35
tp1143
tp1144
sS'3142638494fb5'
p1145
((lp1146
(I3
I1
tp1147
a(I2
I2
tp1148
a(I3
I5471
I117
I39
tp1149
tp1150
sS'727382838493f434451525354'
p1151
((lp1152
(I9
I3
tp1153
a(I7
I5
tp1154
a(I3
I49582
I1179
I66
tp1155
tp1156
sS'267382839394f243334'
p1157
((lp1158
g1135
ag1097
a(I3
I25605
I806
I45
tp1159
tp1160
sS'738283849394f435253545566'
p1161
((lp1162
(I8
I4
tp1163
a(I6
I2
tp1164
a(I4
I2
tp1165
a(I4
I4
tp1166
a(I6
I4
tp1167
a(I4
I6
tp1168
a(I3
I22095
I561
I60
tp1169
tp1170
sS'838492939495f334244455354'
p1171
((lp1172
(I9
I2
tp1173
a(I8
I2
tp1174
a(I3
I30563
I1181
I54
tp1175
tp1176
sS'838492939495f424445525354'
p1177
((lp1178
(I9
I2
tp1179
ag1089
a(I3
I38405
I1448
I53
tp1180
tp1181
sS'8283849394f455254636477'
p1182
((lp1183
(I9
I3
tp1184
a(I7
I3
tp1185
a(I5
I3
tp1186
a(I5
I5
tp1187
a(I3
I5
tp1188
a(I3
I42103
I934
I61
tp1189
tp1190
sS'3574828384f60'
p1191
((lp1192
(I8
I2
tp1193
a(I7
I1
tp1194
a(I3
I1630
I26
I11
tp1195
tp1196
sS'4042637273fb5'
p1197
((lp1198
(I7
I2
tp1199
a(I7
I4
tp1200
a(I5
I2
tp1201
a(I3
I2
tp1202
a(I3
I4266
I49
I36
tp1203
tp1204
sS'738283849394f424445525463'
p1205
((lp1206
g1084
a(I5
I3
tp1207
a(I3
I37575
I748
I55
tp1208
tp1209
sS'8384929394f26435354'
p1210
((lp1211
(I9
I3
tp1212
a(I7
I3
tp1213
a(I3
I8810
I162
I47
tp1214
tp1215
sS'838492939495f424344455463'
p1216
((lp1217
(I9
I5
tp1218
a(I7
I3
tp1219
a(I5
I3
tp1220
a(I3
I3
tp1221
a(I5
I5
tp1222
a(I3
I5
tp1223
a(I3
I61731
I1279
I68
tp1224
tp1225
sS'828384939495f444552535463'
p1226
((lp1227
(I9
I5
tp1228
a(I8
I6
tp1229
a(I3
I34758
I870
I54
tp1230
tp1231
sS'7483849395f425467'
p1232
((lp1233
(I8
I3
tp1234
a(I6
I5
tp1235
a(I4
I3
tp1236
a(I4
I1
tp1237
a(I3
I10912
I131
I52
tp1238
tp1239
sS'828384869394f435253545563'
p1240
((lp1241
(I9
I4
tp1242
a(I7
I2
tp1243
a(I3
I29043
I573
I59
tp1244
tp1245
sS'72838693f435455639192'
p1246
((lp1247
(I9
I3
tp1248
a(I7
I3
tp1249
a(I5
I3
tp1250
a(I3
I3
tp1251
a(I3
I21179
I798
I31
tp1252
tp1253
sS'467382839394f5377'
p1254
((lp1255
(I8
I3
tp1256
a(I6
I3
tp1257
a(I3
I12152
I90
I56
tp1258
tp1259
sS'354446638394fb6'
p1260
((lp1261
g1168
a(I2
I4
tp1262
a(I3
I6635
I106
I52
tp1263
tp1264
sS'358384929394f4253'
p1265
((lp1266
g1179
a(I7
I4
tp1267
a(I3
I7406
I77
I54
tp1268
tp1269
sS'1573849394f33'
p1270
((lp1271
(I1
I5
tp1272
a(I0
I4
tp1273
a(I1
I37
I0
I0
tp1274
tp1275
sS'828384939495f434452535463'
p1276
((lp1277
(I9
I5
tp1278
a(I8
I6
tp1279
a(I3
I35839
I839
I54
tp1280
tp1281
sS'2242637394fb4'
p1282
((lp1283
(I6
I3
tp1284
a(I8
I3
tp1285
a(I10
I5
tp1286
a(I12
I3
tp1287
a(I1
I10
I0
I0
tp1288
tp1289
sS'838492939495f434445525354'
p1290
((lp1291
g1173
a(I8
I2
tp1292
a(I3
I34787
I1202
I53
tp1293
tp1294
sS'828384939495f424552535455'
p1295
((lp1296
(I9
I5
tp1297
a(I7
I3
tp1298
a(I3
I27999
I920
I51
tp1299
tp1300
sS'56638394f47'
p1301
((lp1302
(I5
I6
tp1303
a(I4
I5
tp1304
a(I3
I1740
I28
I30
tp1305
tp1306
sS'56738394f37'
p1307
((lp1308
g1213
a(I6
I3
tp1309
a(I3
I1859
I10
I30
tp1310
tp1311
sS'3240426373fc4'
p1312
((lp1313
(I4
I2
tp1314
a(I3
I1
tp1315
a(I2
I7318
I129
I43
tp1316
tp1317
sS'267383849394f23333442'
p1318
((lp1319
(I2
I6
tp1320
a(I1
I5
tp1321
a(I3
I10190
I208
I46
tp1322
tp1323
sS'8283849394f4245525462'
p1324
((lp1325
(I9
I3
tp1326
a(I7
I3
tp1327
a(I5
I1
tp1328
a(I5
I3
tp1329
a(I5
I5
tp1330
a(I3
I5
tp1331
a(I3
I41921
I905
I59
tp1332
tp1333
sS'738283849394f333435424554'
p1334
((lp1335
g1174
a(I6
I4
tp1336
a(I4
I4
tp1337
ag1320
a(I3
I26260
I667
I52
tp1338
tp1339
sS'36456383f67'
p1340
((lp1341
(I3
I6
tp1342
a(I2
I5
tp1343
a(I3
I2688
I42
I27
tp1344
tp1345
sS'828384869394f445253546263'
p1346
((lp1347
g654
a(I7
I2
tp1348
a(I9
I2
tp1349
a(I3
I60958
I1692
I59
tp1350
tp1351
sS'3582838494f51'
p1352
((lp1353
(I9
I4
tp1354
a(I7
I4
tp1355
a(I3
I4825
I62
I38
tp1356
tp1357
sS'838492939495f424344455254'
p1358
((lp1359
(I9
I2
tp1360
a(I8
I2
tp1361
a(I3
I17977
I461
I54
tp1362
tp1363
sS'4163849395f87'
p1364
((lp1365
g1237
a(I4
I2
tp1366
a(I3
I3544
I59
I38
tp1367
tp1368
sS'456673829394f74'
p1369
((lp1370
g1089
a(I6
I4
tp1371
a(I8
I4
tp1372
a(I1
I5
I0
I0
tp1373
tp1374
sS'2635415482fc5'
p1375
((lp1376
(I4
I1
tp1377
a(I3
I0
tp1378
a(I2
I4855
I76
I37
tp1379
tp1380
sS'3571748384f70'
p1381
((lp1382
(I8
I4
tp1383
a(I8
I2
tp1384
a(I6
I0
tp1385
a(I8
I0
tp1386
a(I1
I24
I0
I0
tp1387
tp1388
sS'828384939495f424452535463'
p1389
((lp1390
g544
a(I8
I6
tp1391
a(I3
I53804
I1456
I52
tp1392
tp1393
sS'444663739394f97'
p1394
((lp1395
g1072
a(I5
I3
tp1396
a(I3
I5
tp1397
a(I3
I6614
I81
I50
tp1398
tp1399
sS'4072738384f435497'
p1400
((lp1401
(I8
I4
tp1402
a(I8
I2
tp1403
a(I6
I4
tp1404
a(I4
I4
tp1405
ag1314
a(I3
I7020
I90
I45
tp1406
tp1407
sS'72828386f425354626392'
p1408
((lp1409
(I7
I2
tp1410
a(I5
I2
tp1411
a(I3
I2
tp1412
a(I3
I12285
I612
I25
tp1413
tp1414
sS'73839294f2665'
p1415
((lp1416
(I9
I2
tp1417
a(I7
I4
tp1418
ag1303
a(I3
I3443
I41
I34
tp1419
tp1420
sS'32718386f535463b2'
p1421
((lp1422
g1412
a(I2
I2
tp1423
a(I3
I7302
I328
I29
tp1424
tp1425
sS'7273828384f435152535486'
p1426
((lp1427
(I8
I2
tp1428
a(I6
I4
tp1429
a(I4
I2
tp1430
a(I6
I2
tp1431
a(I4
I0
tp1432
a(I3
I16490
I244
I73
tp1433
tp1434
sS'358384929394f4264'
p1435
((lp1436
(I9
I3
tp1437
a(I7
I5
tp1438
a(I5
I3
tp1439
a(I3
I1
tp1440
a(I1
I49
I0
I0
tp1441
tp1442
sS'828384869394f425253546263'
p1443
((lp1444
g654
ag1410
a(I3
I75972
I1892
I63
tp1445
tp1446
sS'828384939495f424344455253'
p1447
((lp1448
g1083
a(I7
I3
tp1449
a(I3
I23895
I995
I50
tp1450
tp1451
sS'738283849394f424344525354'
p1452
((lp1453
(I9
I4
tp1454
ag1199
a(I3
I40028
I1010
I49
tp1455
tp1456
sS'8384929395f425457'
p1457
((lp1458
(I9
I2
tp1459
a(I7
I4
tp1460
a(I3
I5666
I72
I48
tp1461
tp1462
sS'3386f54557192'
p1463
((lp1464
(I3
I3
tp1465
a(I2
I2
tp1466
a(I3
I1755
I116
I15
tp1467
tp1468
sS'45638394f57'
p1469
((lp1470
(I9
I4
tp1471
a(I7
I2
tp1472
a(I5
I4
tp1473
ag1342
a(I3
I2082
I37
I32
tp1474
tp1475
sS'828384939495f333442455354'
p1476
((lp1477
g1228
a(I7
I3
tp1478
a(I3
I14771
I347
I55
tp1479
tp1480
sS'2130316373fc3'
p1481
((lp1482
g1449
a(I6
I2
tp1483
a(I2
I3941
I91
I29
tp1484
tp1485
sS'738283849394f425253545564'
p1486
((lp1487
(I8
I3
tp1488
a(I6
I3
tp1489
a(I4
I1
tp1490
a(I4
I3
tp1491
a(I6
I5
tp1492
a(I4
I5
tp1493
a(I3
I6853
I156
I51
tp1494
tp1495
sS'2673849394f43'
p1496
((lp1497
g1092
ag1272
a(I3
I3152
I47
I30
tp1498
tp1499
sS'5375828586f77'
p1500
((lp1501
g1078
a(I8
I7
tp1502
a(I6
I7
tp1503
a(I1
I40
I0
I0
tp1504
tp1505
sS'357483849394f4263'
p1506
((lp1507
g110
a(I7
I3
tp1508
a(I5
I3
tp1509
a(I3
I1
tp1510
a(I1
I26
I0
I0
tp1511
tp1512
sS'3541647482fa6'
p1513
((lp1514
(I7
I4
tp1515
a(I5
I4
tp1516
a(I3
I5304
I84
I32
tp1517
tp1518
sS'828386929394f525462636473'
p1519
((lp1520
g1349
a(I7
I4
tp1521
a(I7
I2
tp1522
a(I3
I38083
I879
I59
tp1523
tp1524
sS'3582838494f527477'
p1525
((lp1526
(I8
I3
tp1527
a(I8
I5
tp1528
a(I6
I3
tp1529
ag1377
a(I3
I5504
I75
I37
tp1530
tp1531
sS'4263849395f97'
p1532
((lp1533
(I9
I5
tp1534
a(I7
I3
tp1535
a(I5
I3
tp1536
ag1147
a(I3
I4042
I71
I36
tp1537
tp1538
sS'32828386f535463a1'
p1539
((lp1540
(I8
I2
tp1541
a(I7
I1
tp1542
a(I3
I6888
I390
I29
tp1543
tp1544
sS'243544638394fc5'
p1545
((lp1546
g1397
a(I1
I3
tp1547
a(I2
I10343
I121
I55
tp1548
tp1549
sS'22718386f535463c3'
p1550
((lp1551
(I8
I6
tp1552
a(I7
I5
tp1553
a(I2
I8708
I965
I31
tp1554
tp1555
sS'466373829394f5387'
p1556
((lp1557
(I8
I2
tp1558
a(I6
I4
tp1559
a(I6
I2
tp1560
a(I4
I4
tp1561
a(I3
I6853
I55
I58
tp1562
tp1563
sS'7383849294f26535463'
p1564
((lp1565
(I8
I4
tp1566
a(I6
I2
tp1567
a(I4
I4
tp1568
a(I6
I4
tp1569
a(I3
I15489
I389
I51
tp1570
tp1571
sS'157383849394f13233442'
p1572
((lp1573
g1321
a(I0
I4
tp1574
a(I1
I51
I0
I0
tp1575
tp1576
sS'838492939495f424345535462'
p1577
((lp1578
(I9
I4
tp1579
a(I7
I2
tp1580
a(I5
I2
tp1581
a(I3
I4
tp1582
a(I5
I6
tp1583
a(I3
I71409
I1927
I59
tp1584
tp1585
sS'3031326373fc4'
p1586
((lp1587
g1202
a(I2
I1
tp1588
a(I2
I4263
I96
I32
tp1589
tp1590
sS'2286f54558192'
p1591
((lp1592
g1466
a(I1
I2
tp1593
a(I3
I1588
I192
I7
tp1594
tp1595
sS'838492939495f424344535455'
p1596
((lp1597
g1179
ag1558
a(I3
I32653
I1100
I54
tp1598
tp1599
sS'7282869394f5462636492'
p1600
((lp1601
(I9
I3
tp1602
a(I9
I1
tp1603
a(I7
I3
tp1604
a(I5
I3
tp1605
a(I7
I5
tp1606
a(I3
I15381
I557
I43
tp1607
tp1608
sS'7275828694f4562'
p1609
((lp1610
g1522
ag1108
a(I3
I7533
I130
I36
tp1611
tp1612
sS'14456383f87'
p1613
((lp1614
(I1
I4
tp1615
a(I0
I3
tp1616
a(I1
I26
I0
I0
tp1617
tp1618
sS'457382849394f6475'
p1619
((lp1620
g1163
a(I6
I6
tp1621
a(I3
I800
I34
I1
tp1622
tp1623
sS'838492939495f434445535464'
p1624
((lp1625
(I9
I5
tp1626
a(I7
I3
tp1627
a(I5
I5
tp1628
a(I3
I5
tp1629
a(I3
I63154
I1537
I56
tp1630
tp1631
sS'2242638494fc4'
p1632
((lp1633
(I8
I4
tp1634
a(I7
I3
tp1635
a(I2
I6876
I133
I42
tp1636
tp1637
sS'25456383f77'
p1638
((lp1639
g1343
ag1615
a(I3
I1457
I17
I20
tp1640
tp1641
sS'3132406373fc3'
p1642
((lp1643
g1432
a(I3
I0
tp1644
a(I2
I6026
I111
I37
tp1645
tp1646
sS'828384869394f455253546364'
p1647
((lp1648
g1229
a(I7
I6
tp1649
a(I3
I65608
I1971
I60
tp1650
tp1651
sS'3541748284f97'
p1652
((lp1653
(I8
I4
tp1654
ag1140
a(I3
I4180
I36
I38
tp1655
tp1656
sS'7282848693f435354556392'
p1657
((lp1658
(I8
I4
tp1659
a(I8
I3
tp1660
a(I3
I38297
I1407
I45
tp1661
tp1662
sS'4174849395f77'
p1663
((lp1664
g1460
a(I6
I3
tp1665
a(I3
I4522
I83
I41
tp1666
tp1667
sS'828384939495f424452535455'
p1668
((lp1669
g1071
a(I7
I3
tp1670
a(I3
I18052
I346
I53
tp1671
tp1672
sS'4042727383fa6'
p1673
((lp1674
(I8
I3
tp1675
a(I6
I3
tp1676
a(I3
I3860
I56
I35
tp1677
tp1678
sS'2130316263fc4'
p1679
((lp1680
g1644
a(I1
I2
tp1681
a(I2
I3982
I91
I29
tp1682
tp1683
sS'354446639394fa7'
p1684
((lp1685
(I9
I3
tp1686
a(I8
I3
tp1687
a(I3
I5475
I49
I47
tp1688
tp1689
sS'2630355482fc4'
p1690
((lp1691
g1516
a(I4
I3
tp1692
a(I2
I4747
I101
I33
tp1693
tp1694
sS'3541828494f87'
p1695
((lp1696
(I9
I4
tp1697
ag1515
a(I3
I4346
I41
I38
tp1698
tp1699
sS'3142638493fa6'
p1700
((lp1701
(I9
I3
tp1702
a(I9
I4
tp1703
a(I3
I4401
I78
I36
tp1704
tp1705
sS'1286f44548192'
p1706
((lp1707
g1593
a(I0
I3
tp1708
a(I1
I10
I0
I0
tp1709
tp1710
sss.