(dp0
I1
(dp1
S'north'
p2
(dp3
S'838492939495f424344455354'
p4
((lp5
(I4
I2
tp6
a(I6
I4
tp7
a(I1
I59
I0
I0
tp8
tp9
ssS'south'
p10
(dp11
S'838492939495f424344455354'
p12
((lp13
(I9
I2
tp14
a(I7
I4
tp15
a(I1
I59
I0
I0
tp16
tp17
sssI2
(dp18
g2
(dp19
sg10
(dp20
S'838492939495f424445535465'
p21
((lp22
(I9
I3
tp23
a(I7
I5
tp24
a(I5
I5
tp25
a(I3
I3
tp26
a(I5
I1
tp27
a(I2
I1145
I0
I60
tp28
tp29
sS'358384929394f4244'
p30
((lp31
(I3
I5
tp32
a(I5
I3
tp33
a(I3
I1
tp34
a(I1
I57
I0
I0
tp35
tp36
sS'1525647483fa0'
p37
((lp38
(I1
I5
tp39
a(I0
I4
tp40
a(I1
I34
I0
I0
tp41
tp42
sS'748283848593f424445525354'
p43
((lp44
(I8
I3
tp45
a(I6
I5
tp46
a(I4
I3
tp47
a(I4
I1
tp48
a(I2
I435
I0
I59
tp49
tp50
sS'7482838493f4043455354'
p51
((lp52
(I8
I4
tp53
a(I6
I4
tp54
a(I4
I2
tp55
a(I4
I4
tp56
a(I4
I6
tp57
a(I2
I498
I0
I45
tp58
tp59
sS'358384929394f4264'
p60
((lp61
(I9
I3
tp62
a(I7
I5
tp63
a(I5
I3
tp64
a(I3
I1
tp65
a(I1
I41
I0
I0
tp66
tp67
sS'738283849394f434445525354'
p68
((lp69
(I9
I4
tp70
a(I8
I5
tp71
a(I2
I1359
I0
I50
tp72
tp73
sS'73748284f304345'
p74
((lp75
(I8
I2
tp76
a(I6
I4
tp77
a(I2
I164
I0
I32
tp78
tp79
sS'738283848594f424344455355'
p80
((lp81
(I9
I4
tp82
a(I7
I2
tp83
a(I7
I4
tp84
a(I2
I1137
I0
I53
tp85
tp86
sS'2564748393f4470'
p87
((lp88
(I9
I3
tp89
a(I7
I3
tp90
a(I7
I5
tp91
a(I5
I3
tp92
a(I3
I5
tp93
a(I1
I5
tp94
a(I2
I193
I0
I43
tp95
tp96
sS'518384929495f455462'
p97
((lp98
(I9
I4
tp99
a(I7
I2
tp100
a(I5
I2
tp101
a(I5
I0
tp102
a(I2
I677
I0
I60
tp103
tp104
sS'505183849295f4553'
p105
((lp106
g102
a(I5
I2
tp107
a(I5
I4
tp108
a(I3
I6
tp109
a(I1
I51
I0
I0
tp110
tp111
sS'828384939495f424344455354'
p112
((lp113
(I9
I5
tp114
a(I7
I3
tp115
a(I2
I1001
I0
I52
tp116
tp117
sS'838492939495f424344455463'
p118
((lp119
(I9
I5
tp120
a(I7
I3
tp121
a(I5
I3
tp122
a(I3
I3
tp123
a(I5
I5
tp124
ag32
a(I2
I997
I0
I70
tp125
tp126
sS'738283848593f424344455354'
p127
((lp128
(I9
I3
tp129
ag82
a(I2
I1096
I0
I39
tp130
tp131
sS'236673849394f43'
p132
((lp133
g23
a(I7
I5
tp134
a(I5
I7
tp135
a(I2
I153
I0
I48
tp136
tp137
sS'748283848593f434445525354'
p138
((lp139
g71
a(I6
I3
tp140
a(I4
I1
tp141
a(I2
I1334
I0
I54
tp142
tp143
sS'828384939495f444552535463'
p144
((lp145
(I8
I2
tp146
a(I9
I2
tp147
a(I2
I1617
I0
I52
tp148
tp149
sS'13335484f71'
p150
((lp151
(I1
I3
tp152
a(I0
I3
tp153
a(I1
I26
I0
I0
tp154
tp155
sS'4674828393f4044'
p156
((lp157
g57
a(I3
I6
tp158
a(I2
I287
I0
I40
tp159
tp160
sS'738283848594f434445525354'
p161
((lp162
g82
a(I7
I2
tp163
a(I7
I4
tp164
a(I2
I1391
I0
I56
tp165
tp166
sS'738283849394f344244535456'
p167
((lp168
(I8
I3
tp169
a(I6
I3
tp170
a(I4
I3
tp171
a(I4
I5
tp172
a(I2
I3
tp173
a(I2
I280
I0
I56
tp174
tp175
sS'737482838485f424344455354'
p176
((lp177
g115
a(I7
I5
tp178
ag89
a(I2
I1498
I0
I52
tp179
tp180
sS'2574828393f4460'
p181
((lp182
g146
a(I8
I4
tp183
a(I6
I4
tp184
a(I2
I223
I0
I41
tp185
tp186
sS'7482848593f30444553'
p187
((lp188
(I8
I5
tp189
a(I6
I3
tp190
a(I4
I3
tp191
a(I2
I318
I0
I48
tp192
tp193
sS'8392939495f444565'
p194
((lp195
g147
a(I7
I4
tp196
a(I5
I6
tp197
a(I3
I4
tp198
a(I5
I4
tp199
a(I1
I40
I0
I0
tp200
tp201
sS'838492939495f444552536372'
p202
((lp203
(I8
I4
tp204
a(I8
I2
tp205
a(I6
I2
tp206
a(I4
I2
tp207
a(I6
I4
tp208
a(I2
I976
I0
I62
tp209
tp210
sS'358384929394f4255'
p211
((lp212
g32
a(I2
I4
tp213
a(I2
I321
I0
I53
tp214
tp215
sS'247483849394f4244'
p216
((lp217
g213
a(I1
I3
tp218
a(I2
I277
I0
I51
tp219
tp220
sS'234051576694f43'
p221
((lp222
g173
a(I1
I3
tp223
a(I2
I160
I0
I37
tp224
tp225
sS'248384929394f4245'
p226
((lp227
(I9
I2
tp228
a(I7
I4
tp229
a(I2
I242
I0
I54
tp230
tp231
sS'738283849394f424344455355'
p232
((lp233
(I9
I4
tp234
ag189
a(I2
I1367
I0
I49
tp235
tp236
sS'2535647483f90'
p237
((lp238
(I3
I5
tp239
ag39
a(I2
I152
I0
I35
tp240
tp241
sS'235762667394f45'
p242
((lp243
(I7
I3
tp244
a(I5
I1
tp245
a(I2
I240
I0
I43
tp246
tp247
sS'22335484f61'
p248
((lp249
(I2
I2
tp250
ag152
a(I2
I154
I0
I26
tp251
tp252
sS'2564747583f4480'
p253
((lp254
g91
a(I5
I3
tp255
ag239
a(I1
I5
tp256
a(I2
I182
I0
I42
tp257
tp258
sS'828384939495f344244535455'
p259
((lp260
(I9
I5
tp261
ag244
a(I2
I850
I0
I54
tp262
tp263
sS'838492939495f434445525354'
p264
((lp265
(I9
I2
tp266
ag146
a(I2
I1071
I0
I53
tp267
tp268
sS'3674828393f4450'
p269
((lp270
g158
a(I2
I5
tp271
a(I2
I205
I0
I39
tp272
tp273
sS'137483849394f4245'
p274
((lp275
g218
a(I0
I3
tp276
a(I1
I51
I0
I0
tp277
tp278
sS'237382849394f425455'
p279
((lp280
(I8
I2
tp281
a(I6
I4
tp282
a(I4
I4
tp283
a(I6
I6
tp284
a(I2
I368
I0
I51
tp285
tp286
sS'235766738494f44'
p287
((lp288
(I8
I4
tp289
a(I6
I2
tp290
a(I2
I201
I0
I47
tp291
tp292
sS'134051576694f44'
p293
((lp294
g223
a(I0
I3
tp295
a(I1
I34
I0
I0
tp296
tp297
sS'33647484f41'
p298
((lp299
g84
a(I5
I4
tp300
a(I2
I109
I0
I28
tp301
tp302
sS'748283848593f424344455355'
p303
((lp304
g89
a(I7
I3
tp305
a(I2
I1164
I0
I51
tp306
tp307
sS'838492939495f424344455355'
p308
((lp309
g228
a(I8
I2
tp310
a(I2
I848
I0
I53
tp311
tp312
sS'33546484f51'
p313
((lp314
g77
a(I4
I4
tp315
ag250
a(I2
I114
I0
I30
tp316
tp317
sS'838492939495f344244455354'
p318
((lp319
(I9
I2
tp320
ag281
a(I2
I1041
I0
I53
tp321
tp322
sS'235157626694f44'
p323
((lp324
g290
a(I4
I0
tp325
a(I2
I178
I0
I40
tp326
tp327
sS'74828493f304245'
p328
((lp329
g89
a(I7
I5
tp330
a(I7
I3
tp331
a(I2
I206
I0
I31
tp332
tp333
sS'64737484f303445'
p334
((lp335
g331
a(I5
I5
tp336
a(I3
I5
tp337
a(I3
I3
tp338
a(I2
I133
I0
I32
tp339
tp340
sssI3
(dp341
g2
(dp342
S'82a4b5f70b6'
p343
((lp344
(I11
I6
tp345
a(I12
I5
tp346
a(I3
I1191
I110
I7
tp347
tp348
sS'828492939495f434445525354'
p349
((lp350
(I4
I5
tp351
a(I6
I3
tp352
a(I3
I18909
I370
I53
tp353
tp354
sS'828384929394f445253546365'
p355
((lp356
(I6
I5
tp357
a(I6
I6
tp358
a(I3
I42216
I827
I56
tp359
tp360
sS'828384929394f525354636466'
p361
((lp362
g358
a(I7
I7
tp363
a(I3
I49588
I1083
I59
tp364
tp365
sS'8294a4f7096'
p366
((lp367
(I9
I6
tp368
a(I10
I6
tp369
a(I3
I1236
I123
I9
tp370
tp371
sS'828494f7086'
p372
((lp373
(I8
I6
tp374
ag368
a(I3
I1303
I138
I9
tp375
tp376
sS'7384a5f6177'
p377
((lp378
(I6
I1
tp379
a(I7
I0
tp380
a(I3
I1569
I208
I6
tp381
tp382
sS'8284a5f7077'
p383
((lp384
g363
ag374
a(I3
I782
I82
I7
tp385
tp386
sS'738384f527795'
p387
((lp388
(I5
I2
tp389
ag379
a(I3
I2473
I196
I16
tp390
tp391
sS'828392939495f434452535463'
p392
((lp393
(I4
I3
tp394
ag357
a(I3
I59439
I1472
I48
tp395
tp396
sS'838492939495f424344455354'
p397
((lp398
(I4
I2
tp399
a(I5
I2
tp400
a(I3
I24013
I539
I52
tp401
tp402
sS'558283849294f5253546377'
p403
((lp404
(I5
I3
tp405
a(I7
I3
tp406
a(I9
I1
tp407
a(I9
I3
tp408
a(I9
I5
tp409
a(I3
I16984
I452
I37
tp410
tp411
sS'8283929394a4f445253546366'
p412
((lp413
(I4
I4
tp414
a(I6
I2
tp415
a(I6
I4
tp416
a(I3
I77549
I1895
I52
tp417
tp418
sS'82b4f70c5'
p419
((lp420
g346
a(I13
I4
tp421
a(I1
I11
I0
I0
tp422
tp423
sS'82a4b4f70a6'
p424
((lp425
g369
ag345
a(I3
I1177
I106
I8
tp426
tp427
ssg10
(dp428
S'3142638494fb5'
p429
((lp430
(I3
I1
tp431
a(I2
I2
tp432
a(I3
I5471
I117
I39
tp433
tp434
sS'838492939495f424445525354'
p435
((lp436
(I9
I2
tp437
a(I8
I2
tp438
a(I3
I38405
I1448
I53
tp439
tp440
sS'36456383f67'
p441
((lp442
(I3
I6
tp443
a(I2
I5
tp444
a(I3
I2688
I42
I27
tp445
tp446
sS'444663739394f97'
p447
((lp448
(I7
I3
tp449
a(I5
I3
tp450
a(I3
I5
tp451
a(I3
I6614
I81
I50
tp452
tp453
sS'358384929394f4264'
p454
((lp455
(I9
I3
tp456
a(I7
I5
tp457
a(I5
I3
tp458
a(I3
I1
tp459
a(I1
I49
I0
I0
tp460
tp461
sS'8283849394f455254636477'
p462
((lp463
(I9
I3
tp464
a(I7
I3
tp465
a(I5
I3
tp466
a(I5
I5
tp467
a(I3
I5
tp468
a(I3
I42103
I934
I61
tp469
tp470
sS'828384869394f455253546364'
p471
((lp472
(I8
I6
tp473
a(I7
I6
tp474
a(I3
I65608
I1971
I60
tp475
tp476
sS'243544638394fc5'
p477
((lp478
g451
a(I1
I3
tp479
a(I2
I10343
I121
I55
tp480
tp481
sS'157383849394f13233442'
p482
((lp483
(I1
I5
tp484
a(I0
I4
tp485
a(I1
I51
I0
I0
tp486
tp487
sS'4163849395f87'
p488
((lp489
(I4
I1
tp490
a(I4
I2
tp491
a(I3
I3544
I59
I38
tp492
tp493
sS'828384939495f434452535455'
p494
((lp495
(I9
I5
tp496
ag449
a(I3
I26804
I869
I51
tp497
tp498
sS'456673829394f74'
p499
((lp500
g438
a(I6
I4
tp501
a(I8
I4
tp502
a(I1
I5
I0
I0
tp503
tp504
sS'8384929394f26435354'
p505
((lp506
(I9
I3
tp507
a(I7
I3
tp508
a(I3
I8810
I162
I47
tp509
tp510
sS'838492939495f424344455463'
p511
((lp512
(I9
I5
tp513
a(I7
I3
tp514
a(I5
I3
tp515
a(I3
I3
tp516
a(I5
I5
tp517
a(I3
I5
tp518
a(I3
I61731
I1279
I68
tp519
tp520
sS'2635415482fc5'
p521
((lp522
(I4
I1
tp523
a(I3
I0
tp524
a(I2
I4855
I76
I37
tp525
tp526
sS'838492939495f424345535462'
p527
((lp528
(I9
I4
tp529
a(I7
I2
tp530
a(I5
I2
tp531
a(I3
I4
tp532
a(I5
I6
tp533
a(I3
I71409
I1927
I59
tp534
tp535
sS'3582838494f527477'
p536
((lp537
(I8
I3
tp538
a(I8
I5
tp539
a(I6
I3
tp540
ag523
a(I3
I5504
I75
I37
tp541
tp542
sS'7382849394f365355'
p543
((lp544
g438
a(I6
I4
tp545
a(I4
I6
tp546
a(I2
I6
tp547
a(I3
I14143
I250
I44
tp548
tp549
sS'157382839394f142433'
p550
((lp551
(I1
I5
tp552
a(I0
I4
tp553
a(I1
I50
I0
I0
tp554
tp555
sS'828384939495f444552535463'
p556
((lp557
(I9
I5
tp558
ag473
a(I3
I34758
I870
I54
tp559
tp560
sS'7483849395f425467'
p561
((lp562
(I8
I3
tp563
a(I6
I5
tp564
a(I4
I3
tp565
ag490
a(I3
I10912
I131
I52
tp566
tp567
sS'357483849394f4254'
p568
((lp569
(I8
I3
tp570
a(I6
I5
tp571
a(I4
I3
tp572
a(I4
I1
tp573
a(I1
I18
I0
I0
tp574
tp575
sS'467382839394f5377'
p576
((lp577
(I8
I3
tp578
a(I6
I3
tp579
a(I3
I12152
I90
I56
tp580
tp581
sS'354446638394fb6'
p582
((lp583
(I4
I6
tp584
a(I2
I4
tp585
a(I3
I6635
I106
I52
tp586
tp587
sS'838492939495f424344535455'
p588
((lp589
g437
a(I8
I2
tp590
a(I3
I32653
I1100
I54
tp591
tp592
sS'73839294f2665'
p593
((lp594
(I9
I2
tp595
a(I7
I4
tp596
a(I5
I6
tp597
a(I3
I3443
I41
I34
tp598
tp599
sS'358384929394f4253'
p600
((lp601
g437
a(I7
I4
tp602
a(I3
I7406
I77
I54
tp603
tp604
sS'14456383f87'
p605
((lp606
(I1
I4
tp607
a(I0
I3
tp608
a(I1
I26
I0
I0
tp609
tp610
sS'738283849394f333436424553'
p611
((lp612
(I8
I4
tp613
a(I6
I2
tp614
a(I4
I4
tp615
a(I4
I6
tp616
a(I2
I6
tp617
a(I3
I13486
I286
I56
tp618
tp619
sS'4263849395f97'
p620
((lp621
(I9
I5
tp622
a(I7
I3
tp623
a(I5
I3
tp624
ag431
a(I3
I4042
I71
I36
tp625
tp626
sS'3142638493fa6'
p627
((lp628
(I9
I3
tp629
a(I9
I4
tp630
a(I3
I4401
I78
I36
tp631
tp632
sS'3541546482fb6'
p633
((lp634
(I6
I4
tp635
a(I4
I4
tp636
a(I2
I6
tp637
a(I3
I5173
I54
I35
tp638
tp639
sS'1573849394f33'
p640
((lp641
(I1
I5
tp642
a(I0
I4
tp643
a(I1
I37
I0
I0
tp644
tp645
sS'838492939495f434445535464'
p646
((lp647
(I9
I5
tp648
a(I7
I3
tp649
a(I5
I5
tp650
a(I3
I5
tp651
a(I3
I63154
I1537
I56
tp652
tp653
sS'2242638494fc4'
p654
((lp655
(I8
I4
tp656
a(I7
I3
tp657
a(I2
I6876
I133
I42
tp658
tp659
sS'25456383f77'
p660
((lp661
g444
ag607
a(I3
I1457
I17
I20
tp662
tp663
sS'2242637394fb4'
p664
((lp665
(I6
I3
tp666
a(I8
I3
tp667
a(I10
I5
tp668
a(I12
I3
tp669
a(I1
I10
I0
I0
tp670
tp671
sS'828384939495f424552535455'
p672
((lp673
(I9
I5
tp674
a(I7
I3
tp675
a(I3
I27999
I920
I51
tp676
tp677
sS'8384929395f425457'
p678
((lp679
(I9
I2
tp680
a(I7
I4
tp681
a(I3
I5666
I72
I48
tp682
tp683
sS'3541748284f97'
p684
((lp685
(I8
I4
tp686
ag635
a(I3
I4180
I36
I38
tp687
tp688
sS'838492939495f434445525354'
p689
((lp690
(I9
I2
tp691
a(I8
I2
tp692
a(I3
I34787
I1202
I53
tp693
tp694
sS'45638394f57'
p695
((lp696
(I9
I4
tp697
a(I7
I2
tp698
a(I5
I4
tp699
ag443
a(I3
I2082
I37
I32
tp700
tp701
sS'4174849395f77'
p702
((lp703
g681
a(I6
I3
tp704
a(I3
I4522
I83
I41
tp705
tp706
sS'828384939495f333442455354'
p707
((lp708
g558
a(I7
I3
tp709
a(I3
I14771
I347
I55
tp710
tp711
sS'828384939495f424452535455'
p712
((lp713
g496
a(I7
I3
tp714
a(I3
I18052
I346
I53
tp715
tp716
sS'56638394f47'
p717
((lp718
g597
a(I4
I5
tp719
a(I3
I1740
I28
I30
tp720
tp721
sS'466373829394f5387'
p722
((lp723
g590
a(I6
I4
tp724
a(I6
I2
tp725
a(I4
I4
tp726
a(I3
I6853
I55
I58
tp727
tp728
sS'267382839394f243334'
p729
((lp730
g617
ag552
a(I3
I25605
I806
I45
tp731
tp732
sS'56738394f37'
p733
((lp734
g508
a(I6
I3
tp735
a(I3
I1859
I10
I30
tp736
tp737
sS'738283849394f425253545564'
p738
((lp739
(I8
I3
tp740
a(I6
I3
tp741
a(I4
I1
tp742
a(I4
I3
tp743
a(I6
I5
tp744
a(I4
I5
tp745
a(I3
I6853
I156
I51
tp746
tp747
sS'738283849394f435253545566'
p748
((lp749
(I8
I4
tp750
a(I6
I2
tp751
a(I4
I2
tp752
a(I4
I4
tp753
a(I6
I4
tp754
ag584
a(I3
I22095
I561
I60
tp755
tp756
sS'267383849394f23333442'
p757
((lp758
(I2
I6
tp759
ag484
a(I3
I10190
I208
I46
tp760
tp761
sS'2630355482fc4'
p762
((lp763
(I5
I4
tp764
a(I4
I3
tp765
a(I2
I4747
I101
I33
tp766
tp767
sS'2673849394f43'
p768
((lp769
g547
ag642
a(I3
I3152
I47
I30
tp770
tp771
sS'3541828494f87'
p772
((lp773
(I9
I4
tp774
a(I7
I4
tp775
a(I3
I4346
I41
I38
tp776
tp777
sS'738283849394f424452535455'
p778
((lp779
(I8
I3
tp780
a(I6
I3
tp781
a(I4
I1
tp782
a(I4
I3
tp783
a(I4
I5
tp784
a(I3
I7192
I148
I53
tp785
tp786
sS'457382849394f6475'
p787
((lp788
g750
a(I6
I6
tp789
a(I3
I800
I34
I1
tp790
tp791
sS'838492939495f334244455354'
p792
((lp793
g691
a(I8
I2
tp794
a(I3
I30563
I1181
I54
tp795
tp796
sS'7383849294f26535463'
p797
((lp798
(I8
I4
tp799
a(I6
I2
tp800
a(I4
I4
tp801
a(I6
I4
tp802
a(I3
I15489
I389
I51
tp803
tp804
sS'354446639394fa7'
p805
((lp806
(I9
I3
tp807
a(I8
I3
tp808
a(I3
I5475
I49
I47
tp809
tp810
sS'738283849394f333435424554'
p811
((lp812
g794
a(I6
I4
tp813
a(I4
I4
tp814
ag759
a(I3
I26260
I667
I52
tp815
tp816
sS'3541647482fa6'
p817
((lp818
g775
ag764
a(I3
I5304
I84
I32
tp819
tp820
sss.